	.file	"backward_references.cc"
	.section	.text.unlikely._ZN6brotli24CreateBackwardReferencesINS_23HashLongestMatchQuicklyILi16ELi1EEELb0ELb0EEEvmmPKhmPKfmmdiPT_PiS9_PNS_7CommandES9_,"axG",@progbits,_ZN6brotli24CreateBackwardReferencesINS_23HashLongestMatchQuicklyILi16ELi1EEELb0ELb0EEEvmmPKhmPKfmmdiPT_PiS9_PNS_7CommandES9_,comdat
.LCOLDB5:
	.section	.text._ZN6brotli24CreateBackwardReferencesINS_23HashLongestMatchQuicklyILi16ELi1EEELb0ELb0EEEvmmPKhmPKfmmdiPT_PiS9_PNS_7CommandES9_,"axG",@progbits,_ZN6brotli24CreateBackwardReferencesINS_23HashLongestMatchQuicklyILi16ELi1EEELb0ELb0EEEvmmPKhmPKfmmdiPT_PiS9_PNS_7CommandES9_,comdat
.LHOTB5:
	.p2align 4,,15
	.weak	_ZN6brotli24CreateBackwardReferencesINS_23HashLongestMatchQuicklyILi16ELi1EEELb0ELb0EEEvmmPKhmPKfmmdiPT_PiS9_PNS_7CommandES9_
	.type	_ZN6brotli24CreateBackwardReferencesINS_23HashLongestMatchQuicklyILi16ELi1EEELb0ELb0EEEvmmPKhmPKfmmdiPT_PiS9_PNS_7CommandES9_, @function
_ZN6brotli24CreateBackwardReferencesINS_23HashLongestMatchQuicklyILi16ELi1EEELb0ELb0EEEvmmPKhmPKfmmdiPT_PiS9_PNS_7CommandES9_:
.LFB6236:
	.cfi_startproc
	pushq	%rbp
	.cfi_def_cfa_offset 16
	.cfi_offset 6, -16
	cmpq	$2, %rdi
	movq	%rsp, %rbp
	.cfi_def_cfa_register 6
	pushq	%r15
	pushq	%r14
	pushq	%r13
	pushq	%r12
	.cfi_offset 15, -24
	.cfi_offset 14, -32
	.cfi_offset 13, -40
	.cfi_offset 12, -48
	movq	%rdx, %r15
	pushq	%rbx
	movl	%esi, %edx
	.cfi_offset 3, -56
	movq	%rcx, -64(%rbp)
	movq	32(%rbp), %r10
	jbe	.L4
	cmpq	$2, %rsi
	jbe	.L4
	movq	-64(%rbp), %rbx
	leaq	-3(%rsi), %rax
	leal	-3(%rsi), %ecx
	andq	%rbx, %rax
	imull	$506832829, (%r15,%rax), %eax
	shrl	$16, %eax
	movl	%ecx, (%r10,%rax,4)
	leaq	-2(%rsi), %rax
	leal	-2(%rsi), %ecx
	andq	%rbx, %rax
	imull	$506832829, (%r15,%rax), %eax
	shrl	$16, %eax
	movl	%ecx, (%r10,%rax,4)
	leaq	-1(%rsi), %rax
	leal	-1(%rsi), %ecx
	andq	%rbx, %rax
	imull	$506832829, (%r15,%rax), %eax
	shrl	$16, %eax
	movl	%ecx, (%r10,%rax,4)
.L4:
	andq	-64(%rbp), %rsi
	movq	48(%rbp), %rax
	movl	$256, %ecx
	movl	(%rax), %eax
	subl	%esi, %edx
	cmpl	$9, 24(%rbp)
	movq	%rsi, %r12
	movl	%edx, -76(%rbp)
	movl	$2048, %edx
	leaq	(%rsi,%rdi), %rbx
	movl	%eax, -52(%rbp)
	movl	%esi, %eax
	movq	%rbx, -104(%rbp)
	cmovl	%ecx, %edx
	movw	$64, %cx
	movl	%edx, -140(%rbp)
	movl	$512, %edx
	cmovl	%ecx, %edx
	leal	(%rdx,%rsi), %esi
	movl	%edx, -112(%rbp)
	leaq	3(%r12), %rdx
	cmpq	%rdx, %rbx
	movl	%esi, -68(%rbp)
	jbe	.L220
	movl	-104(%rbp), %eax
	movsd	.LC3(%rip), %xmm6
	movsd	.LC2(%rip), %xmm7
	movq	%r15, %r14
	movsd	.LC4(%rip), %xmm3
	movq	%r10, %r15
	movl	%eax, -108(%rbp)
	movslq	-76(%rbp), %rax
	movsd	.LC1(%rip), %xmm4
	movsd	.LC0(%rip), %xmm5
	movq	%rax, -128(%rbp)
	movl	-64(%rbp), %eax
	movl	%eax, -84(%rbp)
	movq	56(%rbp), %rax
	movq	%rax, -120(%rbp)
	.p2align 4,,10
	.p2align 3
.L100:
	movl	-76(%rbp), %eax
	movq	40(%rbp), %rsi
	movl	-108(%rbp), %r13d
	leal	(%rax,%r12), %edx
	movl	-84(%rbp), %eax
	movl	(%rsi), %esi
	subl	%r12d, %r13d
	movl	%edx, %r8d
	movq	%rdx, %rcx
	andl	%edx, %eax
	subl	%esi, %r8d
	movl	%esi, -56(%rbp)
	cltq
	addq	%r14, %rax
	cmpq	%rdx, %r8
	movzbl	(%rax), %ebx
	jnb	.L8
	andq	-64(%rbp), %r8
	addq	%r14, %r8
	movzbl	(%r8), %edx
	cmpl	%edx, %ebx
	je	.L221
.L8:
	imull	$506832829, (%rax), %edx
	movl	-64(%rbp), %r11d
	shrl	$16, %edx
	movl	(%r15,%rdx,4), %edx
	andl	%edx, %r11d
	addq	%r14, %r11
	movzbl	(%r11), %esi
	cmpl	%esi, %ebx
	je	.L222
.L21:
	imull	$506832829, (%r14,%r12), %eax
	movslq	-68(%rbp), %rdx
	addl	$1, -52(%rbp)
	shrl	$16, %eax
	movl	%ecx, (%r15,%rax,4)
	leaq	1(%r12), %rax
	cmpq	%rdx, %rax
	jbe	.L223
	movl	-68(%rbp), %edx
	addl	-140(%rbp), %edx
	movslq	%edx, %rdx
	cmpq	%rdx, %rax
	jbe	.L97
	movq	-104(%rbp), %rbx
	addq	$17, %r12
	leaq	-4(%rbx), %rdx
	cmpq	%rdx, %r12
	cmovbe	%r12, %rdx
	movq	%rax, %r12
	movslq	%edx, %rdx
	cmpq	%rdx, %rax
	jnb	.L95
	movl	-52(%rbp), %ecx
	movl	-76(%rbp), %edi
	.p2align 4,,10
	.p2align 3
.L98:
	imull	$506832829, (%r14,%r12), %eax
	leal	(%rdi,%r12), %esi
	addq	$4, %r12
	addl	$4, %ecx
	shrl	$16, %eax
	cmpq	%rdx, %r12
	movl	%esi, (%r15,%rax,4)
	jb	.L98
.L211:
	movl	%ecx, -52(%rbp)
	.p2align 4,,10
	.p2align 3
.L95:
	leaq	3(%r12), %rax
	cmpq	%rax, -104(%rbp)
	ja	.L100
	movq	-120(%rbp), %rdx
	subq	56(%rbp), %rdx
	movl	%r12d, %eax
	shrq	$5, %rdx
.L7:
	movl	-52(%rbp), %ebx
	subl	%eax, %ebx
	movl	-108(%rbp), %eax
	addl	%ebx, %eax
	movq	48(%rbp), %rbx
	movl	%eax, (%rbx)
	movq	64(%rbp), %rax
	addl	%edx, (%rax)
	popq	%rbx
	popq	%r12
	popq	%r13
	popq	%r14
	popq	%r15
	popq	%rbp
	.cfi_remember_state
	.cfi_def_cfa 7, 8
	ret
	.p2align 4,,10
	.p2align 3
.L223:
	.cfi_restore_state
	movq	%rax, %r12
	jmp	.L95
	.p2align 4,,10
	.p2align 3
.L222:
	movl	%ecx, %ebx
	subl	%edx, %ebx
	testl	%ebx, %ebx
	movl	%ebx, -56(%rbp)
	je	.L21
	movq	-128(%rbp), %rsi
	leaq	(%r12,%rsi), %rdx
	cmpq	16(%rbp), %rdx
	cmova	16(%rbp), %rdx
	cmpl	%edx, %ebx
	ja	.L21
	movl	%r13d, %edi
	xorl	%esi, %esi
	movq	%rax, %rdx
	shrq	$3, %rdi
	testq	%rdi, %rdi
	je	.L23
	movq	(%rax), %r10
	movq	(%r11), %r9
	cmpq	%r9, %r10
	jne	.L107
	leaq	8(%r11), %r8
	movq	%rax, %rdx
	jmp	.L27
	.p2align 4,,10
	.p2align 3
.L25:
	addq	$8, %r8
	movq	(%rdx), %r10
	movq	-8(%r8), %r9
	cmpq	%r9, %r10
	jne	.L24
.L27:
	addq	$8, %rdx
	movl	%edx, %esi
	subl	%eax, %esi
	subq	$1, %rdi
	jne	.L25
.L23:
	movl	%r13d, %eax
	andl	$7, %eax
	testl	%eax, %eax
	movl	%eax, %r8d
	je	.L26
	movslq	%esi, %rax
	addq	%rax, %r11
	movzbl	(%rdx), %eax
	cmpb	%al, (%r11)
	jne	.L26
	subq	$1, %r8
	xorl	%eax, %eax
	jmp	.L32
	.p2align 4,,10
	.p2align 3
.L31:
	movzbl	1(%r11,%rax), %edi
	addq	$1, %rax
	cmpb	(%rdx,%rax), %dil
	jne	.L26
.L32:
	addl	$1, %esi
	cmpq	%r8, %rax
	jne	.L31
.L26:
	cmpl	$3, %esi
	jle	.L21
	pxor	%xmm1, %xmm1
	testl	%ebx, %ebx
	movapd	%xmm4, %xmm2
	movapd	%xmm5, %xmm0
	cvtsi2sd	%esi, %xmm1
	mulsd	%xmm4, %xmm1
	je	.L33
	pxor	%xmm0, %xmm0
	bsrl	%ebx, %ebx
	cvtsi2sd	%ebx, %xmm0
	mulsd	.LC3(%rip), %xmm0
.L33:
	subsd	%xmm0, %xmm1
.L20:
	movq	-128(%rbp), %rax
	movl	%esi, -72(%rbp)
	addq	$1, %rax
	movq	%rax, -136(%rbp)
	leal	-4(%r13), %eax
	movl	%eax, -96(%rbp)
	movl	-76(%rbp), %eax
	addl	$1, %eax
	movl	%eax, -92(%rbp)
	.p2align 4,,10
	.p2align 3
.L63:
	subl	$1, %r13d
	cmpl	$3, 24(%rbp)
	jg	.L109
	movl	-72(%rbp), %eax
	leal	-1(%rax), %edx
	cmpl	%r13d, %edx
	cmovg	%r13d, %edx
	movslq	%edx, %rbx
.L34:
	imull	$506832829, (%r14,%r12), %eax
	movl	%r12d, -80(%rbp)
	shrl	$16, %eax
	movl	%ecx, (%r15,%rax,4)
	movl	-92(%rbp), %eax
	movq	40(%rbp), %rcx
	leal	(%rax,%r12), %esi
	movl	-84(%rbp), %eax
	movl	%esi, %r8d
	andl	%esi, %eax
	addl	%eax, %edx
	movslq	%edx, %rdx
	movzbl	(%r14,%rdx), %edi
	movl	%esi, %edx
	movl	%edi, -68(%rbp)
	movl	(%rcx), %edi
	subl	%edi, %r8d
	movl	%edi, -88(%rbp)
	cmpq	%rdx, %r8
	jnb	.L35
	andq	-64(%rbp), %r8
	cltq
	addq	%r14, %rax
	addq	%r14, %r8
	movzbl	(%r8,%rbx), %edx
	cmpl	%edx, -68(%rbp)
	je	.L224
.L37:
	imull	$506832829, (%rax), %edx
	movl	-64(%rbp), %r9d
	shrl	$16, %edx
	movl	(%r15,%rdx,4), %edx
	andl	%edx, %r9d
	addq	%r14, %r9
	movzbl	(%r9,%rbx), %ecx
	cmpl	%ecx, -68(%rbp)
	je	.L225
.L208:
	movslq	-72(%rbp), %rsi
	movl	-80(%rbp), %eax
.L50:
	addl	-112(%rbp), %eax
	movslq	-56(%rbp), %rcx
	movq	-128(%rbp), %rbx
	leal	(%rax,%rsi,2), %eax
	leaq	(%r12,%rbx), %rdx
	movl	%eax, -68(%rbp)
	movl	%ecx, %eax
	addl	$16, %eax
	cmpq	16(%rbp), %rdx
	cmova	16(%rbp), %rdx
	cmpq	%rdx, %rcx
	jbe	.L64
	movl	-56(%rbp), %edx
	addl	$15, %edx
	cmpl	$15, %edx
	jle	.L82
.L83:
	leal	-13(%rax), %r8d
	bsrl	%r8d, %eax
	movl	%r8d, %edi
	leal	-1(%rax), %ecx
	leal	10(%rax,%rax), %edx
	sarl	%cl, %edi
	movl	%edi, %eax
	sall	%cl, %eax
	sall	$24, %ecx
	subl	%eax, %r8d
	movl	%r8d, %eax
	orl	%ecx, %eax
	addw	%di, %dx
	sete	%r10b
	cmpl	$5, -52(%rbp)
	movl	%eax, -56(%rbp)
	movw	%dx, -88(%rbp)
	jle	.L226
.L85:
	cmpl	$129, -52(%rbp)
	jle	.L227
	cmpl	$2113, -52(%rbp)
	jle	.L228
	xorl	%r10d, %r10d
	cmpl	$6209, -52(%rbp)
	movl	$40, %r13d
	movl	$21, %edx
	jg	.L229
.L86:
	cmpl	$9, %esi
	jle	.L230
.L89:
	cmpl	$133, %esi
	jle	.L231
	cmpl	$2117, %esi
	jle	.L232
	movl	$7, -72(%rbp)
	xorl	%r10d, %r10d
	movl	$23, %edi
.L90:
	leaq	_ZN6brotliL8insextraE(%rip), %rax
	movslq	%edx, %r8
	leaq	_ZN6brotliL9copyextraE(%rip), %r9
	movl	-52(%rbp), %r11d
	movl	(%rax,%r8,4), %ecx
	movslq	%edi, %rax
	movslq	(%r9,%rax,4), %rbx
	movslq	%ecx, %r9
	addq	%rbx, %r9
	leaq	_ZN6brotliL7insbaseE(%rip), %rbx
	subl	(%rbx,%r8,4), %r11d
	leaq	_ZN6brotliL8copybaseE(%rip), %rbx
	movslq	%r11d, %r8
	movl	%esi, %r11d
	subl	(%rbx,%rax,4), %r11d
	movslq	%r11d, %rax
	movl	-72(%rbp), %r11d
	orl	%r13d, %r11d
	testb	%r10b, %r10b
	je	.L92
	movl	%r11d, %r13d
	orl	$64, %r13d
	cmpl	$8, %edi
	cmovge	%r13d, %r11d
.L93:
	movq	-120(%rbp), %rbx
	movl	-52(%rbp), %edi
	salq	%cl, %rax
	salq	$48, %r9
	orq	%rax, %r9
	movl	-56(%rbp), %eax
	movl	%edi, (%rbx)
	movzwl	-88(%rbp), %edi
	orq	%r8, %r9
	movl	-80(%rbp), %r8d
	addl	-76(%rbp), %r8d
	leaq	32(%rbx), %rdx
	movl	%esi, 4(%rbx)
	movw	%r11w, 8(%rbx)
	movq	%r9, 16(%rbx)
	movl	%eax, 24(%rbx)
	movw	%di, 10(%rbx)
	leaq	(%r14,%r12), %rdi
	leal	1(%r8), %ecx
	addl	%esi, %r8d
	.p2align 4,,10
	.p2align 3
.L94:
	imull	$506832829, 1(%rdi), %eax
	addq	$1, %rdi
	shrl	$16, %eax
	movl	%ecx, (%r15,%rax,4)
	addl	$1, %ecx
	cmpl	%r8d, %ecx
	jne	.L94
	addq	%rsi, %r12
	movq	%rdx, -120(%rbp)
	movl	$0, -52(%rbp)
	jmp	.L95
	.p2align 4,,10
	.p2align 3
.L35:
	cltq
	addq	%r14, %rax
	jmp	.L37
	.p2align 4,,10
	.p2align 3
.L109:
	xorl	%ebx, %ebx
	xorl	%edx, %edx
	jmp	.L34
	.p2align 4,,10
	.p2align 3
.L225:
	subl	%edx, %esi
	testl	%esi, %esi
	movl	%esi, %ebx
	je	.L208
	movq	-136(%rbp), %rcx
	leaq	(%r12,%rcx), %rdx
	cmpq	%rdx, 16(%rbp)
	cmovbe	16(%rbp), %rdx
	cmpl	%edx, %esi
	ja	.L208
	movl	%r13d, %edi
	xorl	%edx, %edx
	movq	%rax, %rcx
	shrq	$3, %rdi
	testq	%rdi, %rdi
	je	.L52
	movq	(%rax), %r11
	movq	(%r9), %r10
	cmpq	%r10, %r11
	jne	.L112
	leaq	8(%r9), %r8
	movq	%rax, %rcx
	jmp	.L56
	.p2align 4,,10
	.p2align 3
.L54:
	addq	$8, %r8
	movq	(%rcx), %r11
	movq	-8(%r8), %r10
	cmpq	%r10, %r11
	jne	.L53
.L56:
	addq	$8, %rcx
	movl	%ecx, %edx
	subl	%eax, %edx
	subq	$1, %rdi
	jne	.L54
.L52:
	movl	%r13d, %eax
	andl	$7, %eax
	testl	%eax, %eax
	movl	%eax, %r8d
	je	.L55
	movslq	%edx, %rax
	addq	%rax, %r9
	movzbl	(%rcx), %eax
	cmpb	%al, (%r9)
	jne	.L55
	subq	$1, %r8
	xorl	%eax, %eax
	jmp	.L61
	.p2align 4,,10
	.p2align 3
.L60:
	movzbl	1(%r9,%rax), %edi
	addq	$1, %rax
	cmpb	(%rcx,%rax), %dil
	jne	.L55
.L61:
	addl	$1, %edx
	cmpq	%r8, %rax
	jne	.L60
.L55:
	cmpl	$3, %edx
	jle	.L208
	pxor	%xmm0, %xmm0
	testl	%esi, %esi
	movsd	.LC0(%rip), %xmm8
	cvtsi2sd	%edx, %xmm0
	mulsd	%xmm2, %xmm0
	je	.L62
	pxor	%xmm8, %xmm8
	bsrl	%esi, %esi
	cvtsi2sd	%esi, %xmm8
	mulsd	%xmm6, %xmm8
.L62:
	subsd	%xmm8, %xmm0
.L49:
	addsd	%xmm3, %xmm1
	ucomisd	%xmm1, %xmm0
	jb	.L208
	addq	$1, %r12
	addl	$1, -52(%rbp)
	cmpl	-96(%rbp), %r13d
	je	.L233
	movl	-76(%rbp), %eax
	movapd	%xmm0, %xmm1
	movl	%ebx, -56(%rbp)
	movl	%edx, -72(%rbp)
	leal	(%rax,%r12), %ecx
	jmp	.L63
	.p2align 4,,10
	.p2align 3
.L233:
	movl	%ebx, -56(%rbp)
	movslq	%edx, %rsi
	movl	%r12d, -80(%rbp)
	movl	%r12d, %eax
	jmp	.L50
	.p2align 4,,10
	.p2align 3
.L92:
	sarl	$3, %edx
	sarl	$3, %edi
	leal	(%rdx,%rdx,2), %edx
	addl	%edx, %edi
	leaq	_ZZN6brotliL18CombineLengthCodesEiiiE5cells(%rip), %rdx
	movslq	%edi, %rdi
	movl	(%rdx,%rdi,4), %r13d
	sall	$6, %r13d
	orl	%r13d, %r11d
	jmp	.L93
	.p2align 4,,10
	.p2align 3
.L64:
	movl	-56(%rbp), %ebx
	movl	-88(%rbp), %edi
	cmpl	%edi, %ebx
	je	.L115
	movq	40(%rbp), %rcx
	movl	4(%rcx), %ecx
	cmpl	%ecx, %ebx
	je	.L67
	movq	40(%rbp), %rdx
	movl	8(%rdx), %r8d
	cmpl	%r8d, %ebx
	je	.L116
	cmpl	12(%rdx), %ebx
	je	.L117
	cmpl	$5, %ebx
	jle	.L69
	cmpl	$1, 24(%rbp)
	jle	.L69
	leal	-1(%rdi), %edx
	cmpl	%edx, %ebx
	je	.L234
	movl	-88(%rbp), %ebx
	leal	1(%rbx), %edx
	cmpl	%edx, -56(%rbp)
	je	.L235
	movl	%ebx, %edx
	movl	-56(%rbp), %ebx
	cmpl	$10, %ebx
	setg	%dil
	subl	$2, %edx
	cmpl	%edx, %ebx
	jne	.L136
	testb	%dil, %dil
	jne	.L119
.L136:
	movl	-88(%rbp), %ebx
	leal	2(%rbx), %edx
	cmpl	%edx, -56(%rbp)
	jne	.L137
	testb	%dil, %dil
	jne	.L120
.L137:
	movl	-88(%rbp), %ebx
	leal	-3(%rbx), %edx
	cmpl	%edx, -56(%rbp)
	jne	.L138
	testb	%dil, %dil
	jne	.L121
.L138:
	movl	-88(%rbp), %ebx
	leal	3(%rbx), %edx
	cmpl	%edx, -56(%rbp)
	jne	.L139
	testb	%dil, %dil
	jne	.L122
.L139:
	leal	-1(%rcx), %edx
	cmpl	%edx, -56(%rbp)
	jne	.L140
	testb	%dil, %dil
	jne	.L123
.L140:
	leal	1(%rcx), %edx
	cmpl	%edx, -56(%rbp)
	jne	.L141
	testb	%dil, %dil
	jne	.L124
.L141:
	movl	-56(%rbp), %ebx
	leal	-2(%rcx), %edx
	cmpl	$11, %ebx
	setg	%dil
	cmpl	%edx, %ebx
	jne	.L142
	testb	%dil, %dil
	jne	.L125
.L142:
	leal	2(%rcx), %edx
	cmpl	%edx, -56(%rbp)
	jne	.L143
	testb	%dil, %dil
	jne	.L126
.L143:
	leal	-3(%rcx), %edx
	cmpl	%edx, -56(%rbp)
	jne	.L144
	testb	%dil, %dil
	jne	.L127
.L144:
	leal	3(%rcx), %edx
	cmpl	%edx, -56(%rbp)
	jne	.L69
	testb	%dil, %dil
	jne	.L236
.L69:
	cmpl	$1, %eax
	jle	.L237
	movl	-56(%rbp), %ebx
	leal	15(%rbx), %edx
.L104:
	movl	%ecx, -72(%rbp)
	movd	-56(%rbp), %xmm0
	cmpl	$15, %edx
	movd	-72(%rbp), %xmm1
	movl	%r8d, -72(%rbp)
	movd	-72(%rbp), %xmm2
	movq	40(%rbp), %rbx
	punpckldq	%xmm2, %xmm1
	movd	-88(%rbp), %xmm2
	punpckldq	%xmm2, %xmm0
	punpcklqdq	%xmm1, %xmm0
	movups	%xmm0, (%rbx)
	jg	.L83
.L82:
	testw	%dx, %dx
	sete	%r10b
	movw	%dx, -88(%rbp)
.L66:
	cmpl	$5, -52(%rbp)
	movl	$0, -56(%rbp)
	jg	.L85
.L226:
	movl	-52(%rbp), %edx
	movl	%edx, %r13d
	andl	$7, %r13d
	sall	$3, %r13d
	cmpl	$9, %esi
	jg	.L89
.L230:
	leal	-2(%rsi), %edi
	movl	%edi, -72(%rbp)
	jmp	.L90
	.p2align 4,,10
	.p2align 3
.L224:
	movl	%r13d, %edi
	xorl	%edx, %edx
	movq	%rax, %rcx
	shrq	$3, %rdi
	testq	%rdi, %rdi
	je	.L39
	movq	(%rax), %r11
	movq	(%r8), %r10
	cmpq	%r10, %r11
	jne	.L110
	leaq	8(%r8), %r9
	movq	%rax, %rcx
	jmp	.L43
	.p2align 4,,10
	.p2align 3
.L41:
	addq	$8, %r9
	movq	(%rcx), %r11
	movq	-8(%r9), %r10
	cmpq	%r10, %r11
	jne	.L40
.L43:
	addq	$8, %rcx
	movl	%ecx, %edx
	subl	%eax, %edx
	subq	$1, %rdi
	jne	.L41
.L39:
	movl	%r13d, %edi
	andl	$7, %edi
	testl	%edi, %edi
	movl	%edi, %r10d
	je	.L42
	movslq	%edx, %rdi
	addq	%rdi, %r8
	movzbl	(%rcx), %edi
	cmpb	%dil, (%r8)
	jne	.L42
	subq	$1, %r10
	xorl	%edi, %edi
	jmp	.L48
	.p2align 4,,10
	.p2align 3
.L47:
	movzbl	1(%r8,%rdi), %r9d
	addq	$1, %rdi
	cmpb	(%rcx,%rdi), %r9b
	jne	.L42
.L48:
	addl	$1, %edx
	cmpq	%r10, %rdi
	jne	.L47
.L42:
	cmpl	$3, %edx
	jle	.L37
.L238:
	pxor	%xmm0, %xmm0
	movl	-88(%rbp), %ebx
	cvtsi2sd	%edx, %xmm0
	mulsd	%xmm2, %xmm0
	addsd	%xmm7, %xmm0
	jmp	.L49
.L112:
	xorl	%edx, %edx
	.p2align 4,,10
	.p2align 3
.L53:
	xorq	%r11, %r10
	rep bsfq	%r10, %r10
	sarl	$3, %r10d
	addl	%r10d, %edx
	jmp	.L55
	.p2align 4,,10
	.p2align 3
.L221:
	movl	%r13d, %edi
	xorl	%esi, %esi
	movq	%rax, %rdx
	shrq	$3, %rdi
	testq	%rdi, %rdi
	je	.L10
	movq	(%rax), %r11
	movq	(%r8), %r10
	cmpq	%r10, %r11
	jne	.L106
	leaq	8(%r8), %r9
	movq	%rax, %rdx
	jmp	.L14
	.p2align 4,,10
	.p2align 3
.L12:
	addq	$8, %r9
	movq	(%rdx), %r11
	movq	-8(%r9), %r10
	cmpq	%r10, %r11
	jne	.L11
.L14:
	addq	$8, %rdx
	movl	%edx, %esi
	subl	%eax, %esi
	subq	$1, %rdi
	jne	.L12
.L10:
	movl	%r13d, %edi
	andl	$7, %edi
	testl	%edi, %edi
	movl	%edi, %r10d
	je	.L13
	movslq	%esi, %rdi
	addq	%rdi, %r8
	movzbl	(%rdx), %edi
	cmpb	%dil, (%r8)
	jne	.L13
	subq	$1, %r10
	xorl	%edi, %edi
	jmp	.L19
	.p2align 4,,10
	.p2align 3
.L18:
	movzbl	1(%r8,%rdi), %r9d
	addq	$1, %rdi
	cmpb	(%rdx,%rdi), %r9b
	jne	.L13
.L19:
	addl	$1, %esi
	cmpq	%r10, %rdi
	jne	.L18
.L13:
	cmpl	$3, %esi
	jle	.L8
.L239:
	pxor	%xmm1, %xmm1
	movsd	.LC1(%rip), %xmm2
	cvtsi2sd	%esi, %xmm1
	mulsd	%xmm2, %xmm1
	addsd	.LC2(%rip), %xmm1
	jmp	.L20
	.p2align 4,,10
	.p2align 3
.L97:
	movq	-104(%rbp), %rbx
	addq	$9, %r12
	leaq	-3(%rbx), %rdx
	cmpq	%rdx, %r12
	cmovbe	%r12, %rdx
	movq	%rax, %r12
	movslq	%edx, %rdx
	cmpq	%rdx, %rax
	jnb	.L95
	movl	-52(%rbp), %ecx
	movl	-76(%rbp), %edi
	.p2align 4,,10
	.p2align 3
.L99:
	imull	$506832829, (%r14,%r12), %eax
	leal	(%rdi,%r12), %esi
	addq	$2, %r12
	addl	$2, %ecx
	shrl	$16, %eax
	cmpq	%rdx, %r12
	movl	%esi, (%r15,%rax,4)
	jb	.L99
	jmp	.L211
	.p2align 4,,10
	.p2align 3
.L231:
	leal	-6(%rsi), %eax
	bsrl	%eax, %ecx
	subl	$1, %ecx
	sarl	%cl, %eax
	leal	4(%rax,%rcx,2), %edi
.L210:
	cmpl	$15, %edi
	movl	%edi, %r11d
	setle	%al
	andl	$7, %r11d
	andl	%eax, %r10d
	movl	%r11d, -72(%rbp)
	jmp	.L90
	.p2align 4,,10
	.p2align 3
.L227:
	movl	-52(%rbp), %eax
	subl	$2, %eax
	bsrl	%eax, %ecx
	subl	$1, %ecx
	sarl	%cl, %eax
	leal	2(%rax,%rcx,2), %edx
	movl	%edx, %r13d
	andl	$7, %r13d
	sall	$3, %r13d
	cmpl	$7, %edx
	setle	%al
	andl	%eax, %r10d
	jmp	.L86
.L110:
	xorl	%edx, %edx
	.p2align 4,,10
	.p2align 3
.L40:
	xorq	%r11, %r10
	rep bsfq	%r10, %r10
	sarl	$3, %r10d
	addl	%r10d, %edx
	cmpl	$3, %edx
	jle	.L37
	jmp	.L238
.L107:
	xorl	%esi, %esi
	.p2align 4,,10
	.p2align 3
.L24:
	xorq	%r10, %r9
	rep bsfq	%r9, %r9
	sarl	$3, %r9d
	addl	%r9d, %esi
	jmp	.L26
	.p2align 4,,10
	.p2align 3
.L228:
	movl	-52(%rbp), %eax
	xorl	%r10d, %r10d
	leal	-66(%rax), %edx
	bsrl	%edx, %edx
	addl	$10, %edx
	movl	%edx, %r13d
	andl	$7, %r13d
	sall	$3, %r13d
	jmp	.L86
	.p2align 4,,10
	.p2align 3
.L115:
	xorl	%eax, %eax
	movl	$1, %r10d
	movw	%ax, -88(%rbp)
	jmp	.L66
.L106:
	xorl	%esi, %esi
	.p2align 4,,10
	.p2align 3
.L11:
	xorq	%r11, %r10
	xorl	%edx, %edx
	rep bsfq	%r10, %rdx
	sarl	$3, %edx
	addl	%edx, %esi
	cmpl	$3, %esi
	jle	.L8
	jmp	.L239
	.p2align 4,,10
	.p2align 3
.L232:
	leal	-70(%rsi), %edi
	bsrl	%edi, %edi
	addl	$12, %edi
	jmp	.L210
.L67:
	movq	40(%rbp), %rax
	movl	$1, %edx
	movl	8(%rax), %r8d
	movl	$2, %eax
	jmp	.L104
.L229:
	cmpl	$22594, -52(%rbp)
	setge	%dl
	movzbl	%dl, %r13d
	movzbl	%dl, %edx
	leal	48(,%r13,8), %r13d
	addl	$22, %edx
	jmp	.L86
.L116:
	movl	$2, %edx
	movl	$3, %eax
	jmp	.L104
.L117:
	movl	$3, %edx
	movl	$4, %eax
	jmp	.L104
.L234:
	movl	$4, %edx
	movl	$5, %eax
	jmp	.L104
.L235:
	movl	$5, %edx
	movl	$6, %eax
	jmp	.L104
.L220:
	movl	-104(%rbp), %ebx
	xorl	%edx, %edx
	movl	%ebx, -108(%rbp)
	jmp	.L7
.L236:
	movl	$15, %edx
	movl	$16, %eax
	jmp	.L104
.L127:
	movl	$14, %edx
	movl	$15, %eax
	jmp	.L104
.L124:
	movl	$11, %edx
	movl	$12, %eax
	jmp	.L104
.L125:
	movl	$12, %edx
	movl	$13, %eax
	jmp	.L104
.L126:
	movl	$13, %edx
	movl	$14, %eax
	jmp	.L104
.L123:
	movl	$10, %edx
	movl	$11, %eax
	jmp	.L104
.L120:
	movl	$7, %edx
	movl	$8, %eax
	jmp	.L104
.L121:
	movl	$8, %edx
	movl	$9, %eax
	jmp	.L104
.L122:
	movl	$9, %edx
	movl	$10, %eax
	jmp	.L104
.L119:
	movl	$6, %edx
	movl	$7, %eax
	jmp	.L104
.L237:
	movl	-56(%rbp), %edx
	addl	$15, %edx
	jmp	.L82
	.cfi_endproc
.LFE6236:
	.size	_ZN6brotli24CreateBackwardReferencesINS_23HashLongestMatchQuicklyILi16ELi1EEELb0ELb0EEEvmmPKhmPKfmmdiPT_PiS9_PNS_7CommandES9_, .-_ZN6brotli24CreateBackwardReferencesINS_23HashLongestMatchQuicklyILi16ELi1EEELb0ELb0EEEvmmPKhmPKfmmdiPT_PiS9_PNS_7CommandES9_
	.section	.text.unlikely._ZN6brotli24CreateBackwardReferencesINS_23HashLongestMatchQuicklyILi16ELi1EEELb0ELb0EEEvmmPKhmPKfmmdiPT_PiS9_PNS_7CommandES9_,"axG",@progbits,_ZN6brotli24CreateBackwardReferencesINS_23HashLongestMatchQuicklyILi16ELi1EEELb0ELb0EEEvmmPKhmPKfmmdiPT_PiS9_PNS_7CommandES9_,comdat
.LCOLDE5:
	.section	.text._ZN6brotli24CreateBackwardReferencesINS_23HashLongestMatchQuicklyILi16ELi1EEELb0ELb0EEEvmmPKhmPKfmmdiPT_PiS9_PNS_7CommandES9_,"axG",@progbits,_ZN6brotli24CreateBackwardReferencesINS_23HashLongestMatchQuicklyILi16ELi1EEELb0ELb0EEEvmmPKhmPKfmmdiPT_PiS9_PNS_7CommandES9_,comdat
.LHOTE5:
	.section	.text.unlikely._ZN6brotli24CreateBackwardReferencesINS_23HashLongestMatchQuicklyILi17ELi4EEELb0ELb0EEEvmmPKhmPKfmmdiPT_PiS9_PNS_7CommandES9_,"axG",@progbits,_ZN6brotli24CreateBackwardReferencesINS_23HashLongestMatchQuicklyILi17ELi4EEELb0ELb0EEEvmmPKhmPKfmmdiPT_PiS9_PNS_7CommandES9_,comdat
.LCOLDB6:
	.section	.text._ZN6brotli24CreateBackwardReferencesINS_23HashLongestMatchQuicklyILi17ELi4EEELb0ELb0EEEvmmPKhmPKfmmdiPT_PiS9_PNS_7CommandES9_,"axG",@progbits,_ZN6brotli24CreateBackwardReferencesINS_23HashLongestMatchQuicklyILi17ELi4EEELb0ELb0EEEvmmPKhmPKfmmdiPT_PiS9_PNS_7CommandES9_,comdat
.LHOTB6:
	.p2align 4,,15
	.weak	_ZN6brotli24CreateBackwardReferencesINS_23HashLongestMatchQuicklyILi17ELi4EEELb0ELb0EEEvmmPKhmPKfmmdiPT_PiS9_PNS_7CommandES9_
	.type	_ZN6brotli24CreateBackwardReferencesINS_23HashLongestMatchQuicklyILi17ELi4EEELb0ELb0EEEvmmPKhmPKfmmdiPT_PiS9_PNS_7CommandES9_, @function
_ZN6brotli24CreateBackwardReferencesINS_23HashLongestMatchQuicklyILi17ELi4EEELb0ELb0EEEvmmPKhmPKfmmdiPT_PiS9_PNS_7CommandES9_:
.LFB6242:
	.cfi_startproc
	pushq	%rbp
	.cfi_def_cfa_offset 16
	.cfi_offset 6, -16
	movq	%rsp, %rbp
	.cfi_def_cfa_register 6
	pushq	%r15
	pushq	%r14
	pushq	%r13
	pushq	%r12
	.cfi_offset 15, -24
	.cfi_offset 14, -32
	.cfi_offset 13, -40
	.cfi_offset 12, -48
	movq	%rdx, %r14
	pushq	%rbx
	movl	%esi, %edx
	subq	$64, %rsp
	cmpq	$2, %rdi
	.cfi_offset 3, -56
	movq	%rcx, -56(%rbp)
	movq	32(%rbp), %r15
	jbe	.L243
	cmpq	$2, %rsi
	jbe	.L243
	movq	-56(%rbp), %rbx
	leaq	-3(%rsi), %rax
	leal	-3(%rsi), %r8d
	andq	%rbx, %rax
	imull	$506832829, (%r14,%rax), %ecx
	movl	%r8d, %eax
	shrl	$3, %eax
	andl	$3, %eax
	shrl	$15, %ecx
	addl	%ecx, %eax
	movl	%r8d, (%r15,%rax,4)
	leaq	-2(%rsi), %rax
	leal	-2(%rsi), %r8d
	andq	%rbx, %rax
	imull	$506832829, (%r14,%rax), %ecx
	movl	%r8d, %eax
	shrl	$3, %eax
	andl	$3, %eax
	shrl	$15, %ecx
	addl	%ecx, %eax
	movl	%r8d, (%r15,%rax,4)
	leaq	-1(%rsi), %rax
	leal	-1(%rsi), %r8d
	andq	%rbx, %rax
	imull	$506832829, (%r14,%rax), %ecx
	movl	%r8d, %eax
	shrl	$3, %eax
	andl	$3, %eax
	shrl	$15, %ecx
	addl	%ecx, %eax
	movl	%r8d, (%r15,%rax,4)
.L243:
	movq	%rsi, %rbx
	andq	-56(%rbp), %rbx
	movl	$256, %ecx
	movq	48(%rbp), %rax
	subl	%ebx, %edx
	cmpl	$9, 24(%rbp)
	leaq	(%rbx,%rdi), %rsi
	movl	%edx, -104(%rbp)
	movl	$2048, %edx
	movl	(%rax), %eax
	movq	%rsi, -200(%rbp)
	cmovl	%ecx, %edx
	movw	$64, %cx
	movl	%eax, -68(%rbp)
	movl	%edx, -220(%rbp)
	movl	$512, %edx
	movl	%ebx, %eax
	cmovl	%ecx, %edx
	leal	(%rdx,%rbx), %edi
	movl	%edx, -208(%rbp)
	leaq	3(%rbx), %rdx
	cmpq	%rdx, %rsi
	movl	%edi, -112(%rbp)
	jbe	.L528
	movl	-200(%rbp), %eax
	movsd	.LC0(%rip), %xmm7
	movsd	.LC1(%rip), %xmm6
	movq	%r15, %r13
	movapd	%xmm7, %xmm5
	movq	%rbx, %r15
	movl	%eax, -204(%rbp)
	movslq	-104(%rbp), %rax
	movsd	.LC3(%rip), %xmm8
	movq	%rax, -184(%rbp)
	movl	-56(%rbp), %eax
	movl	%eax, -136(%rbp)
	movq	56(%rbp), %rax
	movq	%rax, -216(%rbp)
	.p2align 4,,10
	.p2align 3
.L374:
	movl	-204(%rbp), %eax
	movq	40(%rbp), %rsi
	subl	%r15d, %eax
	movl	(%rsi), %edi
	movl	%eax, -84(%rbp)
	movq	-184(%rbp), %rax
	movl	%edi, -72(%rbp)
	addq	%r15, %rax
	cmpq	16(%rbp), %rax
	cmova	16(%rbp), %rax
	movq	%rax, -144(%rbp)
	movl	%eax, -100(%rbp)
	movl	-104(%rbp), %eax
	leal	(%rax,%r15), %edx
	movl	-136(%rbp), %eax
	movl	%edx, %ecx
	movq	%rdx, %rbx
	andl	%edx, %eax
	subl	%edi, %ecx
	movslq	%eax, %r10
	movl	%eax, -132(%rbp)
	addq	%r14, %r10
	cmpq	%rdx, %rcx
	movzbl	(%r10), %eax
	jnb	.L380
	andq	-56(%rbp), %rcx
	addq	%r14, %rcx
	movzbl	(%rcx), %edx
	cmpl	%edx, %eax
	je	.L529
.L380:
	movl	-84(%rbp), %esi
	movapd	%xmm0, %xmm2
	movl	$0, -72(%rbp)
	movb	$0, -88(%rbp)
	movl	$0, -64(%rbp)
.L247:
	imull	$506832829, (%r10), %edx
	movl	-84(%rbp), %edi
	shrq	$3, %rsi
	movq	%rsi, -96(%rbp)
	movl	-64(%rbp), %esi
	movapd	%xmm2, %xmm1
	andl	$7, %edi
	movl	%edi, %ecx
	movl	%edi, -120(%rbp)
	movl	%esi, -60(%rbp)
	shrl	$15, %edx
	leaq	0(%r13,%rdx,4), %r12
	movl	0(%r13,%rdx,4), %edx
	leaq	20(%r12), %rdi
	leaq	4(%r12), %r9
	movq	%rdi, -80(%rbp)
	leaq	-1(%rcx), %rdi
	movq	%rdi, -128(%rbp)
.L273:
	movq	-56(%rbp), %rcx
	movslq	-60(%rbp), %rsi
	andq	%rdx, %rcx
	addq	%r14, %rcx
	movzbl	(%rcx,%rsi), %r12d
	cmpl	%eax, %r12d
	je	.L530
.L259:
	addq	$4, %r9
	cmpq	-80(%rbp), %r9
	movl	-4(%r9), %edx
	jne	.L273
	cmpb	$0, -88(%rbp)
	jne	.L274
	movq	524304(%r13), %rax
	movq	524312(%r13), %r12
	movq	%rax, %rdx
	shrq	$7, %rdx
	cmpq	%rdx, %r12
	jb	.L275
	addq	$1, %rax
	leaq	_ZN6brotliL21kStaticDictionaryHashE(%rip), %rdx
	movq	%rax, 524304(%r13)
	imull	$506832829, (%r10), %eax
	shrl	$18, %eax
	addl	%eax, %eax
	movzwl	(%rdx,%rax,2), %r11d
	testw	%r11w, %r11w
	je	.L275
	movl	%r11d, %eax
	leaq	_ZL32kBrotliDictionaryOffsetsByLength(%rip), %rdx
	andl	$31, %eax
	movzwl	%ax, %ecx
	movq	%rcx, %rdi
	cmpl	%edi, -84(%rbp)
	movl	%ecx, -64(%rbp)
	movl	(%rdx,%rcx,4), %ecx
	jb	.L275
	movzwl	%r11w, %edx
	leaq	_ZL17kBrotliDictionary(%rip), %r9
	sarl	$5, %edx
	movl	%edx, %edi
	movl	%edx, -60(%rbp)
	movl	-64(%rbp), %edx
	imull	%edi, %edx
	xorl	%edi, %edi
	addl	%ecx, %edx
	movslq	%edx, %rdx
	addq	%rdx, %r9
	movzwl	%ax, %edx
	shrq	$3, %rdx
	movq	%r9, %rax
	testq	%rdx, %rdx
	je	.L277
	movq	(%r9), %r8
	movq	(%r10), %rsi
	cmpq	%rsi, %r8
	jne	.L388
	leaq	8(%r10), %rcx
	movq	%r9, %rax
	jmp	.L281
	.p2align 4,,10
	.p2align 3
.L279:
	addq	$8, %rcx
	movq	(%rax), %r8
	movq	-8(%rcx), %rsi
	cmpq	%rsi, %r8
	jne	.L278
.L281:
	addq	$8, %rax
	movl	%eax, %edi
	subl	%r9d, %edi
	subq	$1, %rdx
	jne	.L279
.L277:
	andl	$7, %r11d
	testw	%r11w, %r11w
	movzwl	%r11w, %esi
	je	.L280
	movslq	%edi, %rdx
	movzbl	(%rax), %ecx
	addq	%rdx, %r10
	cmpb	%cl, (%r10)
	jne	.L280
	subq	$1, %rsi
	xorl	%edx, %edx
	jmp	.L286
	.p2align 4,,10
	.p2align 3
.L285:
	movzbl	1(%r10,%rdx), %ecx
	addq	$1, %rdx
	cmpb	(%rax,%rdx), %cl
	jne	.L280
.L286:
	addl	$1, %edi
	cmpq	%rsi, %rdx
	jne	.L285
.L280:
	cmpl	%edi, -64(%rbp)
	je	.L531
	.p2align 4,,10
	.p2align 3
.L275:
	imull	$506832829, (%r14,%r15), %eax
	movl	%ebx, %edx
	addl	$1, -68(%rbp)
	shrl	$3, %edx
	andl	$3, %edx
	shrl	$15, %eax
	addl	%edx, %eax
	movslq	-112(%rbp), %rdx
	movl	%ebx, 0(%r13,%rax,4)
	leaq	1(%r15), %rax
	cmpq	%rdx, %rax
	ja	.L377
	movq	%rax, %r15
	leaq	3(%r15), %rax
	cmpq	%rax, -200(%rbp)
	ja	.L374
.L540:
	movq	-216(%rbp), %rdx
	subq	56(%rbp), %rdx
	movl	%r15d, %eax
	shrq	$5, %rdx
.L246:
	movl	-68(%rbp), %ebx
	subl	%eax, %ebx
	movl	-204(%rbp), %eax
	addl	%ebx, %eax
	movq	48(%rbp), %rbx
	movl	%eax, (%rbx)
	movq	64(%rbp), %rax
	addl	%edx, (%rax)
	addq	$64, %rsp
	popq	%rbx
	popq	%r12
	popq	%r13
	popq	%r14
	popq	%r15
	popq	%rbp
	.cfi_remember_state
	.cfi_def_cfa 7, 8
	ret
	.p2align 4,,10
	.p2align 3
.L530:
	.cfi_restore_state
	movl	%ebx, %eax
	subl	%edx, %eax
	movl	%eax, -108(%rbp)
	je	.L495
	cmpl	%eax, -100(%rbp)
	jb	.L495
	xorl	%r8d, %r8d
	cmpq	$0, -96(%rbp)
	movq	%r10, %rax
	je	.L261
	movq	(%r10), %r11
	movq	(%rcx), %rdi
	cmpq	%rdi, %r11
	jne	.L384
	leaq	8(%rcx), %rsi
	movq	-96(%rbp), %rdx
	movq	%r10, %rax
	jmp	.L265
	.p2align 4,,10
	.p2align 3
.L263:
	addq	$8, %rsi
	movq	(%rax), %r11
	movq	-8(%rsi), %rdi
	cmpq	%rdi, %r11
	jne	.L262
.L265:
	addq	$8, %rax
	movl	%eax, %r8d
	subl	%r10d, %r8d
	subq	$1, %rdx
	jne	.L263
.L261:
	movl	-120(%rbp), %esi
	testl	%esi, %esi
	je	.L264
	movslq	%r8d, %rdx
	movzbl	(%rax), %edi
	addq	%rdx, %rcx
	cmpb	%dil, (%rcx)
	jne	.L264
	xorl	%edx, %edx
	movq	-128(%rbp), %rdi
	jmp	.L270
	.p2align 4,,10
	.p2align 3
.L269:
	movzbl	1(%rcx,%rdx), %esi
	addq	$1, %rdx
	cmpb	(%rax,%rdx), %sil
	jne	.L264
.L270:
	addl	$1, %r8d
	cmpq	%rdi, %rdx
	jne	.L269
.L264:
	cmpl	$3, %r8d
	movl	%r12d, %eax
	jle	.L259
	pxor	%xmm3, %xmm3
	movl	-108(%rbp), %ecx
	movapd	%xmm7, %xmm4
	cvtsi2sd	%r8d, %xmm3
	testl	%ecx, %ecx
	mulsd	.LC1(%rip), %xmm3
	je	.L271
	bsrl	-108(%rbp), %eax
	pxor	%xmm4, %xmm4
	cvtsi2sd	%eax, %xmm4
	mulsd	.LC3(%rip), %xmm4
.L271:
	subsd	%xmm4, %xmm3
	ucomisd	%xmm2, %xmm3
	jbe	.L495
	movl	-132(%rbp), %eax
	movl	-108(%rbp), %esi
	movapd	%xmm3, %xmm1
	movl	%r8d, -64(%rbp)
	movl	%r8d, -60(%rbp)
	movapd	%xmm3, %xmm2
	movb	$1, -88(%rbp)
	addl	%r8d, %eax
	movl	%esi, -72(%rbp)
	cltq
	movzbl	(%r14,%rax), %eax
	jmp	.L259
	.p2align 4,,10
	.p2align 3
.L495:
	movl	%r12d, %eax
	jmp	.L259
.L531:
	movl	-60(%rbp), %eax
	movq	-144(%rbp), %rsi
	pxor	%xmm1, %xmm1
	movsd	.LC0(%rip), %xmm3
	leal	1(%rax,%rsi), %edx
	cvtsi2sd	-64(%rbp), %xmm1
	mulsd	.LC1(%rip), %xmm1
	testl	%edx, %edx
	je	.L287
	pxor	%xmm3, %xmm3
	bsrl	%edx, %eax
	cvtsi2sd	%eax, %xmm3
	mulsd	.LC3(%rip), %xmm3
.L287:
	subsd	%xmm3, %xmm1
	ucomisd	%xmm2, %xmm1
	jbe	.L275
	leaq	1(%r12), %rax
	movl	%edx, -72(%rbp)
	movq	%rax, 524312(%r13)
	.p2align 4,,10
	.p2align 3
.L274:
	movl	-84(%rbp), %eax
	movq	-184(%rbp), %rdi
	movsd	.LC1(%rip), %xmm10
	movq	%r13, 32(%rbp)
	movl	%eax, -60(%rbp)
	subl	$4, %eax
	subl	$1, -60(%rbp)
	movl	%eax, -168(%rbp)
	movl	-64(%rbp), %eax
	leaq	1(%rdi), %rsi
	movq	%rsi, -160(%rbp)
	movl	%eax, -80(%rbp)
	movl	-104(%rbp), %eax
	addl	$1, %eax
	cmpl	$3, 24(%rbp)
	movl	%eax, -152(%rbp)
	jg	.L390
.L542:
	movl	-80(%rbp), %eax
	leal	-1(%rax), %r12d
	movl	-60(%rbp), %eax
	cmpl	%eax, %r12d
	cmovg	%eax, %r12d
	movslq	%r12d, %rdx
.L289:
	imull	$506832829, (%r14,%r15), %eax
	movl	%ebx, %ecx
	movq	32(%rbp), %rdi
	movl	%r15d, -132(%rbp)
	shrl	$3, %ecx
	andl	$3, %ecx
	shrl	$15, %eax
	addl	%ecx, %eax
	movl	%ebx, (%rdi,%rax,4)
	movq	-160(%rbp), %rax
	movl	-136(%rbp), %ebx
	addq	%r15, %rax
	cmpq	%rax, 16(%rbp)
	cmovbe	16(%rbp), %rax
	movq	%rax, -192(%rbp)
	movl	%eax, -128(%rbp)
	movl	-152(%rbp), %eax
	addl	%r15d, %eax
	andl	%eax, %ebx
	movl	%eax, %esi
	movl	%eax, -100(%rbp)
	movl	%ebx, -88(%rbp)
	leal	(%r12,%rbx), %eax
	movq	40(%rbp), %rbx
	movl	%esi, %ecx
	movl	%esi, %esi
	cltq
	movl	(%rbx), %ebx
	movzbl	(%r14,%rax), %eax
	subl	%ebx, %ecx
	movl	%ebx, -148(%rbp)
	cmpq	%rsi, %rcx
	jb	.L290
	movslq	-88(%rbp), %r11
	addq	%r14, %r11
.L519:
	movl	-60(%rbp), %edi
	movapd	%xmm0, %xmm3
	movl	$0, -112(%rbp)
	movl	$0, -84(%rbp)
	movb	$0, -96(%rbp)
.L291:
	imull	$506832829, (%r11), %edx
	movq	32(%rbp), %rbx
	shrq	$3, %rdi
	movl	%r12d, -108(%rbp)
	movapd	%xmm3, %xmm2
	movq	%rdi, -120(%rbp)
	shrl	$15, %edx
	leaq	(%rbx,%rdx,4), %r13
	movl	(%rbx,%rdx,4), %edx
	movl	-60(%rbp), %ebx
	leaq	4(%r13), %r9
	addq	$20, %r13
	andl	$7, %ebx
	movl	%ebx, %ecx
	movl	%ebx, -164(%rbp)
	leaq	-1(%rcx), %rbx
	movq	%rbx, -176(%rbp)
.L318:
	movq	-56(%rbp), %rcx
	movslq	%r12d, %rsi
	andq	%rdx, %rcx
	addq	%r14, %rcx
	movzbl	(%rcx,%rsi), %ebx
	cmpl	%eax, %ebx
	je	.L532
.L304:
	addq	$4, %r9
	movl	-4(%r9), %edx
	cmpq	%r13, %r9
	jne	.L318
	cmpb	$0, -96(%rbp)
	jne	.L319
	movq	32(%rbp), %rax
	movq	524312(%rax), %rbx
	movq	524304(%rax), %rax
	movq	%rax, %rdx
	shrq	$7, %rdx
	cmpq	%rdx, %rbx
	jb	.L517
	movq	32(%rbp), %rdi
	addq	$1, %rax
	leaq	_ZN6brotliL21kStaticDictionaryHashE(%rip), %rdx
	movq	%rax, 524304(%rdi)
	imull	$506832829, (%r11), %eax
	shrl	$18, %eax
	addl	%eax, %eax
	movzwl	(%rdx,%rax,2), %r10d
	testw	%r10w, %r10w
	je	.L511
	movl	%r10d, %eax
	leaq	_ZL32kBrotliDictionaryOffsetsByLength(%rip), %rdx
	andl	$31, %eax
	movzwl	%ax, %ecx
	movq	%rcx, %rsi
	cmpl	%esi, -60(%rbp)
	movl	%ecx, -84(%rbp)
	movl	(%rdx,%rcx,4), %ecx
	jb	.L517
	movzwl	%r10w, %edx
	leaq	_ZL17kBrotliDictionary(%rip), %r9
	xorl	%edi, %edi
	sarl	$5, %edx
	movl	%edx, %r12d
	movl	%esi, %edx
	imull	%r12d, %edx
	addl	%ecx, %edx
	movslq	%edx, %rdx
	addq	%rdx, %r9
	movzwl	%ax, %edx
	shrq	$3, %rdx
	movq	%r9, %rax
	testq	%rdx, %rdx
	je	.L322
	movq	(%r9), %r8
	movq	(%r11), %rsi
	cmpq	%rsi, %r8
	jne	.L398
	leaq	8(%r11), %rcx
	movq	%r9, %rax
	jmp	.L326
	.p2align 4,,10
	.p2align 3
.L324:
	addq	$8, %rcx
	movq	(%rax), %r8
	movq	-8(%rcx), %rsi
	cmpq	%rsi, %r8
	jne	.L323
.L326:
	addq	$8, %rax
	movl	%eax, %edi
	subl	%r9d, %edi
	subq	$1, %rdx
	jne	.L324
.L322:
	andl	$7, %r10d
	testw	%r10w, %r10w
	movzwl	%r10w, %esi
	je	.L325
	movslq	%edi, %rdx
	movzbl	(%rax), %ecx
	addq	%rdx, %r11
	cmpb	%cl, (%r11)
	jne	.L325
	subq	$1, %rsi
	xorl	%edx, %edx
	jmp	.L331
	.p2align 4,,10
	.p2align 3
.L330:
	movzbl	1(%r11,%rdx), %ecx
	addq	$1, %rdx
	cmpb	(%rax,%rdx), %cl
	jne	.L325
.L331:
	addl	$1, %edi
	cmpq	%rsi, %rdx
	jne	.L330
.L325:
	cmpl	%edi, -84(%rbp)
	je	.L533
	.p2align 4,,10
	.p2align 3
.L517:
	movq	32(%rbp), %r13
	movl	-132(%rbp), %eax
.L334:
	addl	-208(%rbp), %eax
	movl	-80(%rbp), %ebx
	movslq	-72(%rbp), %rcx
	leal	(%rax,%rbx,2), %eax
	movq	%rcx, %rbx
	movl	%eax, -112(%rbp)
	movq	-184(%rbp), %rax
	leaq	(%r15,%rax), %rdx
	movl	%ecx, %eax
	addl	$16, %eax
	cmpq	16(%rbp), %rdx
	cmova	16(%rbp), %rdx
	cmpq	%rdx, %rcx
	jbe	.L337
	movl	%ecx, %edx
	addl	$15, %edx
	cmpl	$15, %edx
	jle	.L355
.L356:
	leal	-13(%rax), %r12d
	bsrl	%r12d, %eax
	movl	%r12d, %esi
	leal	-1(%rax), %ecx
	leal	10(%rax,%rax), %edx
	sarl	%cl, %esi
	movl	%esi, %eax
	sall	%cl, %eax
	sall	$24, %ecx
	subl	%eax, %r12d
	movl	%r12d, %eax
	orl	%ecx, %eax
	addw	%si, %dx
	sete	%r10b
	cmpl	$5, -68(%rbp)
	movl	%eax, %r12d
	movl	%edx, %r11d
	jle	.L534
.L358:
	cmpl	$129, -68(%rbp)
	jle	.L535
	cmpl	$2113, -68(%rbp)
	jle	.L536
	xorl	%r10d, %r10d
	cmpl	$6209, -68(%rbp)
	movl	$40, %r9d
	movl	$21, %edx
	jle	.L359
	cmpl	$22594, -68(%rbp)
	setge	%dl
	movzbl	%dl, %r9d
	movzbl	%dl, %edx
	leal	48(,%r9,8), %r9d
	addl	$22, %edx
	.p2align 4,,10
	.p2align 3
.L359:
	cmpl	$9, -64(%rbp)
	jle	.L537
.L362:
	cmpl	$133, -64(%rbp)
	jle	.L538
	cmpl	$2117, -64(%rbp)
	jle	.L539
	movb	$0, -72(%rbp)
	movl	$7, -60(%rbp)
	movl	$23, %r8d
.L363:
	leaq	_ZN6brotliL8insextraE(%rip), %rax
	movslq	%edx, %rsi
	leaq	_ZN6brotliL9copyextraE(%rip), %rdi
	movl	-68(%rbp), %r10d
	orl	-60(%rbp), %r9d
	movl	(%rax,%rsi,4), %ecx
	movslq	%r8d, %rax
	movslq	(%rdi,%rax,4), %rbx
	movslq	%ecx, %rdi
	addq	%rbx, %rdi
	leaq	_ZN6brotliL7insbaseE(%rip), %rbx
	subl	(%rbx,%rsi,4), %r10d
	leaq	_ZN6brotliL8copybaseE(%rip), %rbx
	movslq	%r10d, %rsi
	movl	-64(%rbp), %r10d
	subl	(%rbx,%rax,4), %r10d
	cmpb	$0, -72(%rbp)
	movslq	%r10d, %rax
	je	.L365
	movl	%r9d, %edx
	orl	$64, %edx
	cmpl	$8, %r8d
	cmovge	%edx, %r9d
.L366:
	movq	-216(%rbp), %rbx
	movl	-68(%rbp), %edx
	salq	$48, %rdi
	salq	%cl, %rax
	orq	%rax, %rdi
	movl	%edx, (%rbx)
	movl	-80(%rbp), %edx
	orq	%rsi, %rdi
	leaq	32(%rbx), %r8
	movw	%r9w, 8(%rbx)
	movw	%r11w, 10(%rbx)
	movq	%rdi, 16(%rbx)
	movl	%r12d, 24(%rbx)
	cmpl	$1, %edx
	movl	%edx, 4(%rbx)
	jle	.L370
	movl	-132(%rbp), %edi
	addl	-104(%rbp), %edi
	leaq	(%r14,%r15), %rsi
	leal	1(%rdi), %ecx
	addl	-80(%rbp), %edi
	.p2align 4,,10
	.p2align 3
.L369:
	imull	$506832829, 1(%rsi), %eax
	addq	$1, %rsi
	shrl	$15, %eax
	movl	%eax, %edx
	movl	%ecx, %eax
	shrl	$3, %eax
	andl	$3, %eax
	addl	%edx, %eax
	movl	%ecx, 0(%r13,%rax,4)
	addl	$1, %ecx
	cmpl	%edi, %ecx
	jne	.L369
.L370:
	movslq	-80(%rbp), %rax
	movq	%r8, -216(%rbp)
	movl	$0, -68(%rbp)
	addq	%rax, %r15
.L368:
	leaq	3(%r15), %rax
	cmpq	%rax, -200(%rbp)
	ja	.L374
	jmp	.L540
	.p2align 4,,10
	.p2align 3
.L532:
	movl	-100(%rbp), %eax
	subl	%edx, %eax
	movl	%eax, -144(%rbp)
	je	.L496
	cmpl	%eax, -128(%rbp)
	jb	.L496
	xorl	%r8d, %r8d
	cmpq	$0, -120(%rbp)
	movq	%r11, %rax
	je	.L306
	movq	(%r11), %r10
	movq	(%rcx), %rdi
	cmpq	%rdi, %r10
	jne	.L394
	leaq	8(%rcx), %rsi
	movq	-120(%rbp), %rdx
	movq	%r11, %rax
	jmp	.L310
	.p2align 4,,10
	.p2align 3
.L308:
	addq	$8, %rsi
	movq	(%rax), %r10
	movq	-8(%rsi), %rdi
	cmpq	%rdi, %r10
	jne	.L307
.L310:
	addq	$8, %rax
	movl	%eax, %r8d
	subl	%r11d, %r8d
	subq	$1, %rdx
	jne	.L308
.L306:
	movl	-164(%rbp), %edx
	testl	%edx, %edx
	je	.L309
	movslq	%r8d, %rdx
	movzbl	(%rax), %edi
	addq	%rdx, %rcx
	cmpb	%dil, (%rcx)
	jne	.L309
	xorl	%edx, %edx
	movq	-176(%rbp), %rdi
	jmp	.L315
	.p2align 4,,10
	.p2align 3
.L314:
	movzbl	1(%rcx,%rdx), %esi
	addq	$1, %rdx
	cmpb	(%rax,%rdx), %sil
	jne	.L309
.L315:
	addl	$1, %r8d
	cmpq	%rdi, %rdx
	jne	.L314
.L309:
	cmpl	$3, %r8d
	movl	%ebx, %eax
	jle	.L304
	pxor	%xmm4, %xmm4
	movl	-144(%rbp), %eax
	movapd	%xmm5, %xmm9
	cvtsi2sd	%r8d, %xmm4
	testl	%eax, %eax
	mulsd	%xmm6, %xmm4
	je	.L316
	bsrl	-144(%rbp), %eax
	pxor	%xmm9, %xmm9
	cvtsi2sd	%eax, %xmm9
	mulsd	%xmm8, %xmm9
.L316:
	subsd	%xmm9, %xmm4
	ucomisd	%xmm3, %xmm4
	jbe	.L496
	movl	-88(%rbp), %eax
	movl	-144(%rbp), %ebx
	movl	%r8d, %r12d
	movapd	%xmm4, %xmm2
	movl	%r8d, -84(%rbp)
	movl	%r8d, -108(%rbp)
	movapd	%xmm4, %xmm3
	addl	%r8d, %eax
	movl	%ebx, -112(%rbp)
	movb	$1, -96(%rbp)
	cltq
	movzbl	(%r14,%rax), %eax
	jmp	.L304
.L533:
	movq	-192(%rbp), %rax
	pxor	%xmm2, %xmm2
	movsd	.LC0(%rip), %xmm4
	leal	1(%r12,%rax), %eax
	cvtsi2sd	-84(%rbp), %xmm2
	mulsd	%xmm10, %xmm2
	testl	%eax, %eax
	je	.L332
	pxor	%xmm4, %xmm4
	bsrl	%eax, %edx
	cvtsi2sd	%edx, %xmm4
	mulsd	.LC3(%rip), %xmm4
.L332:
	subsd	%xmm4, %xmm2
	ucomisd	%xmm3, %xmm2
	jbe	.L517
	movq	32(%rbp), %rsi
	movl	%eax, -112(%rbp)
	addq	$1, %rbx
	movl	-84(%rbp), %eax
	movq	%rbx, 524312(%rsi)
	movl	%eax, -108(%rbp)
	.p2align 4,,10
	.p2align 3
.L319:
	addsd	.LC4(%rip), %xmm1
	ucomisd	%xmm1, %xmm2
	jb	.L517
	addq	$1, %r15
	addl	$1, -68(%rbp)
	movl	-168(%rbp), %ebx
	cmpl	%ebx, -60(%rbp)
	je	.L541
	movl	-112(%rbp), %eax
	subl	$1, -60(%rbp)
	cmpl	$3, 24(%rbp)
	movapd	%xmm2, %xmm1
	movl	%eax, -72(%rbp)
	movl	-84(%rbp), %eax
	movl	%eax, -64(%rbp)
	movl	-108(%rbp), %eax
	movl	%eax, -80(%rbp)
	movl	-104(%rbp), %eax
	leal	(%rax,%r15), %ebx
	jle	.L542
.L390:
	xorl	%edx, %edx
	xorl	%r12d, %r12d
	jmp	.L289
	.p2align 4,,10
	.p2align 3
.L496:
	movl	%ebx, %eax
	jmp	.L304
	.p2align 4,,10
	.p2align 3
.L290:
	andq	-56(%rbp), %rcx
	movslq	-88(%rbp), %r11
	addq	%r14, %rcx
	addq	%r14, %r11
	movzbl	(%rcx,%rdx), %edx
	cmpl	%edx, %eax
	jne	.L519
	movl	-60(%rbp), %edi
	movq	%rdi, %rsi
	shrq	$3, %rsi
	testq	%rsi, %rsi
	je	.L543
	movq	(%r11), %r10
	movq	(%rcx), %r9
	cmpq	%r9, %r10
	jne	.L391
	leaq	8(%rcx), %r8
	movq	%r11, %rdx
	jmp	.L298
	.p2align 4,,10
	.p2align 3
.L296:
	addq	$8, %r8
	movq	(%rdx), %r10
	movq	-8(%r8), %r9
	cmpq	%r9, %r10
	jne	.L506
.L298:
	addq	$8, %rdx
	movl	%edx, %ebx
	subl	%r11d, %ebx
	subq	$1, %rsi
	jne	.L296
	movl	%ebx, -84(%rbp)
.L294:
	movl	-60(%rbp), %esi
	andl	$7, %esi
	testl	%esi, %esi
	movl	%esi, %r9d
	je	.L297
	movslq	-84(%rbp), %rsi
	addq	%rsi, %rcx
	movq	%rsi, %rbx
	movzbl	(%rdx), %esi
	cmpb	%sil, (%rcx)
	jne	.L297
	subq	$1, %r9
	xorl	%esi, %esi
	movl	%ebx, %r8d
	jmp	.L303
	.p2align 4,,10
	.p2align 3
.L302:
	movzbl	1(%rcx,%rsi), %r10d
	addq	$1, %rsi
	cmpb	(%rdx,%rsi), %r10b
	jne	.L507
.L303:
	addl	$1, %r8d
	cmpq	%r9, %rsi
	jne	.L302
.L507:
	movl	%r8d, -84(%rbp)
.L297:
	cmpl	$3, -84(%rbp)
	jle	.L392
	movl	-84(%rbp), %ebx
	pxor	%xmm3, %xmm3
	movl	-88(%rbp), %eax
	movl	-148(%rbp), %esi
	movb	$1, -96(%rbp)
	cvtsi2sd	%ebx, %xmm3
	movl	%ebx, %r12d
	addl	%ebx, %eax
	movl	%esi, -112(%rbp)
	cltq
	movzbl	(%r14,%rax), %eax
	mulsd	.LC1(%rip), %xmm3
	addsd	.LC2(%rip), %xmm3
	jmp	.L291
.L394:
	xorl	%r8d, %r8d
	.p2align 4,,10
	.p2align 3
.L307:
	xorq	%r10, %rdi
	rep bsfq	%rdi, %rdi
	sarl	$3, %edi
	addl	%edi, %r8d
	jmp	.L309
	.p2align 4,,10
	.p2align 3
.L541:
	movl	-108(%rbp), %eax
	movq	32(%rbp), %r13
	movl	%r15d, -132(%rbp)
	movl	%eax, -80(%rbp)
	movl	-112(%rbp), %eax
	movl	%eax, -72(%rbp)
	movl	-84(%rbp), %eax
	movl	%eax, -64(%rbp)
	movl	%r15d, %eax
	jmp	.L334
	.p2align 4,,10
	.p2align 3
.L365:
	sarl	$3, %edx
	sarl	$3, %r8d
	leal	(%rdx,%rdx,2), %edx
	addl	%edx, %r8d
	leaq	_ZZN6brotliL18CombineLengthCodesEiiiE5cells(%rip), %rdx
	movslq	%r8d, %r8
	movl	(%rdx,%r8,4), %edx
	sall	$6, %edx
	orl	%edx, %r9d
	jmp	.L366
.L384:
	xorl	%r8d, %r8d
	.p2align 4,,10
	.p2align 3
.L262:
	xorq	%r11, %rdi
	rep bsfq	%rdi, %rdi
	sarl	$3, %edi
	addl	%edi, %r8d
	jmp	.L264
	.p2align 4,,10
	.p2align 3
.L377:
	movl	-112(%rbp), %edx
	addl	-220(%rbp), %edx
	movslq	%edx, %rdx
	cmpq	%rdx, %rax
	jbe	.L371
	movq	-200(%rbp), %rbx
	leaq	17(%r15), %rdx
	movq	%rax, %r15
	leaq	-4(%rbx), %rcx
	cmpq	%rcx, %rdx
	cmova	%rcx, %rdx
	movslq	%edx, %rsi
	cmpq	%rsi, %rax
	jnb	.L368
	movl	-68(%rbp), %edi
	movl	-104(%rbp), %r8d
	.p2align 4,,10
	.p2align 3
.L372:
	leal	(%r8,%r15), %ecx
	addl	$4, %edi
	movl	%ecx, %eax
	shrl	$3, %eax
	andl	$3, %eax
	movl	%eax, %edx
	imull	$506832829, (%r14,%r15), %eax
	addq	$4, %r15
	shrl	$15, %eax
	addl	%edx, %eax
	cmpq	%rsi, %r15
	movl	%ecx, 0(%r13,%rax,4)
	jb	.L372
	movl	%edi, -68(%rbp)
	jmp	.L368
	.p2align 4,,10
	.p2align 3
.L337:
	movl	-148(%rbp), %esi
	cmpl	%esi, %ecx
	je	.L402
	movq	40(%rbp), %rdi
	movl	4(%rdi), %ecx
	cmpl	%ebx, %ecx
	je	.L340
	movl	8(%rdi), %edi
	cmpl	%ebx, %edi
	je	.L403
	movq	40(%rbp), %rdx
	cmpl	%ebx, 12(%rdx)
	je	.L404
	cmpl	$5, %ebx
	jle	.L342
	cmpl	$1, 24(%rbp)
	jle	.L342
	leal	-1(%rsi), %edx
	cmpl	%ebx, %edx
	je	.L544
	movl	-148(%rbp), %ebx
	leal	1(%rbx), %edx
	cmpl	-72(%rbp), %edx
	je	.L545
	movl	%ebx, %edx
	movl	-72(%rbp), %ebx
	cmpl	$10, %ebx
	setg	%sil
	subl	$2, %edx
	cmpl	%ebx, %edx
	jne	.L428
	testb	%sil, %sil
	jne	.L406
.L428:
	movl	-148(%rbp), %ebx
	leal	2(%rbx), %edx
	cmpl	%edx, -72(%rbp)
	jne	.L429
	testb	%sil, %sil
	jne	.L407
.L429:
	movl	-148(%rbp), %ebx
	leal	-3(%rbx), %edx
	cmpl	%edx, -72(%rbp)
	jne	.L430
	testb	%sil, %sil
	jne	.L408
.L430:
	movl	-148(%rbp), %ebx
	leal	3(%rbx), %edx
	cmpl	%edx, -72(%rbp)
	jne	.L431
	testb	%sil, %sil
	jne	.L409
.L431:
	leal	-1(%rcx), %edx
	cmpl	%edx, -72(%rbp)
	jne	.L432
	testb	%sil, %sil
	jne	.L410
.L432:
	leal	1(%rcx), %edx
	cmpl	%edx, -72(%rbp)
	jne	.L433
	testb	%sil, %sil
	jne	.L411
.L433:
	movl	-72(%rbp), %ebx
	leal	-2(%rcx), %edx
	cmpl	$11, %ebx
	setg	%sil
	cmpl	%edx, %ebx
	jne	.L434
	testb	%sil, %sil
	jne	.L412
.L434:
	leal	2(%rcx), %edx
	cmpl	%edx, -72(%rbp)
	jne	.L435
	testb	%sil, %sil
	jne	.L413
.L435:
	leal	-3(%rcx), %edx
	cmpl	%edx, -72(%rbp)
	jne	.L436
	testb	%sil, %sil
	jne	.L414
.L436:
	leal	3(%rcx), %edx
	cmpl	%edx, -72(%rbp)
	jne	.L342
	testb	%sil, %sil
	jne	.L546
.L342:
	cmpl	$1, %eax
	jle	.L547
	movl	-72(%rbp), %ebx
	leal	15(%rbx), %edx
.L376:
	movl	%ecx, -60(%rbp)
	movd	-72(%rbp), %xmm1
	cmpl	$15, %edx
	movd	-60(%rbp), %xmm2
	movl	%edi, -60(%rbp)
	movd	-60(%rbp), %xmm4
	movq	40(%rbp), %rbx
	punpckldq	%xmm4, %xmm2
	movd	-148(%rbp), %xmm4
	punpckldq	%xmm4, %xmm1
	punpcklqdq	%xmm2, %xmm1
	movups	%xmm1, (%rbx)
	jg	.L356
.L355:
	testw	%dx, %dx
	movl	%edx, %r11d
	sete	%r10b
.L339:
	xorl	%r12d, %r12d
	cmpl	$5, -68(%rbp)
	jg	.L358
.L534:
	movl	-68(%rbp), %edx
	movl	%edx, %r9d
	andl	$7, %r9d
	sall	$3, %r9d
	cmpl	$9, -64(%rbp)
	jg	.L362
.L537:
	movl	-64(%rbp), %eax
	andl	$1, %r10d
	movb	%r10b, -72(%rbp)
	leal	-2(%rax), %r8d
	movl	%r8d, %eax
	andl	$7, %eax
	movl	%eax, -60(%rbp)
	jmp	.L363
	.p2align 4,,10
	.p2align 3
.L511:
	movq	%rdi, %r13
	movl	-132(%rbp), %eax
	jmp	.L334
	.p2align 4,,10
	.p2align 3
.L529:
	movl	-84(%rbp), %esi
	movq	%rsi, %rdi
	shrq	$3, %rdi
	testq	%rdi, %rdi
	je	.L548
	movq	(%r10), %r11
	movq	(%rcx), %r9
	cmpq	%r9, %r11
	jne	.L381
	leaq	8(%rcx), %r8
	movq	%r10, %rdx
	jmp	.L253
	.p2align 4,,10
	.p2align 3
.L251:
	addq	$8, %r8
	movq	(%rdx), %r11
	movq	-8(%r8), %r9
	cmpq	%r9, %r11
	jne	.L500
.L253:
	addq	$8, %rdx
	movl	%edx, %r12d
	subl	%r10d, %r12d
	subq	$1, %rdi
	jne	.L251
	movl	%r12d, -64(%rbp)
.L249:
	movl	-84(%rbp), %edi
	andl	$7, %edi
	testl	%edi, %edi
	movl	%edi, %r9d
	je	.L252
	movl	-64(%rbp), %r8d
	movslq	%r8d, %rdi
	addq	%rdi, %rcx
	movzbl	(%rdx), %edi
	cmpb	%dil, (%rcx)
	jne	.L252
	subq	$1, %r9
	xorl	%edi, %edi
	jmp	.L258
	.p2align 4,,10
	.p2align 3
.L257:
	movzbl	1(%rcx,%rdi), %r11d
	addq	$1, %rdi
	cmpb	(%rdx,%rdi), %r11b
	jne	.L501
.L258:
	addl	$1, %r8d
	cmpq	%r9, %rdi
	jne	.L257
.L501:
	movl	%r8d, -64(%rbp)
.L252:
	cmpl	$3, -64(%rbp)
	jle	.L382
	movl	-64(%rbp), %edi
	pxor	%xmm2, %xmm2
	movl	-132(%rbp), %eax
	movb	$1, -88(%rbp)
	cvtsi2sd	%edi, %xmm2
	addl	%edi, %eax
	cltq
	movzbl	(%r14,%rax), %eax
	mulsd	.LC1(%rip), %xmm2
	addsd	.LC2(%rip), %xmm2
	jmp	.L247
	.p2align 4,,10
	.p2align 3
.L371:
	movq	-200(%rbp), %rbx
	leaq	9(%r15), %rdx
	movq	%rax, %r15
	leaq	-3(%rbx), %rcx
	cmpq	%rcx, %rdx
	cmova	%rcx, %rdx
	movslq	%edx, %rsi
	cmpq	%rax, %rsi
	jbe	.L368
	movl	-68(%rbp), %edi
	movl	-104(%rbp), %r8d
	.p2align 4,,10
	.p2align 3
.L373:
	leal	(%r8,%r15), %ecx
	addl	$2, %edi
	movl	%ecx, %eax
	shrl	$3, %eax
	andl	$3, %eax
	movl	%eax, %edx
	imull	$506832829, (%r14,%r15), %eax
	addq	$2, %r15
	shrl	$15, %eax
	addl	%edx, %eax
	cmpq	%r15, %rsi
	movl	%ecx, 0(%r13,%rax,4)
	ja	.L373
	movl	%edi, -68(%rbp)
	jmp	.L368
	.p2align 4,,10
	.p2align 3
.L538:
	movl	-64(%rbp), %eax
	subl	$6, %eax
	bsrl	%eax, %ecx
	subl	$1, %ecx
	sarl	%cl, %eax
	leal	4(%rax,%rcx,2), %r8d
.L520:
	movl	%r8d, %eax
	andl	$7, %eax
	cmpl	$15, %r8d
	movl	%eax, -60(%rbp)
	setle	%al
	andl	%eax, %r10d
	movb	%r10b, -72(%rbp)
	jmp	.L363
	.p2align 4,,10
	.p2align 3
.L535:
	movl	-68(%rbp), %eax
	subl	$2, %eax
	bsrl	%eax, %ecx
	subl	$1, %ecx
	sarl	%cl, %eax
	leal	2(%rax,%rcx,2), %edx
	movl	%edx, %r9d
	andl	$7, %r9d
	sall	$3, %r9d
	cmpl	$7, %edx
	setle	%al
	andl	%eax, %r10d
	jmp	.L359
	.p2align 4,,10
	.p2align 3
.L392:
	movapd	%xmm0, %xmm3
	movl	$0, -112(%rbp)
	movl	$0, -84(%rbp)
	movb	$0, -96(%rbp)
	jmp	.L291
	.p2align 4,,10
	.p2align 3
.L506:
	movl	%ebx, -84(%rbp)
.L295:
	xorq	%r10, %r9
	xorl	%edx, %edx
	rep bsfq	%r9, %rdx
	sarl	$3, %edx
	addl	%edx, -84(%rbp)
	jmp	.L297
.L536:
	movl	-68(%rbp), %eax
	xorl	%r10d, %r10d
	leal	-66(%rax), %edx
	bsrl	%edx, %edx
	addl	$10, %edx
	movl	%edx, %r9d
	andl	$7, %r9d
	sall	$3, %r9d
	jmp	.L359
.L382:
	movapd	%xmm0, %xmm2
	movl	$0, -72(%rbp)
	movb	$0, -88(%rbp)
	movl	$0, -64(%rbp)
	jmp	.L247
.L402:
	movl	$1, %r10d
	xorl	%r11d, %r11d
	jmp	.L339
.L500:
	movl	%r12d, -64(%rbp)
.L250:
	xorq	%r11, %r9
	xorl	%edx, %edx
	rep bsfq	%r9, %rdx
	sarl	$3, %edx
	addl	%edx, -64(%rbp)
	jmp	.L252
.L539:
	movl	-64(%rbp), %eax
	leal	-70(%rax), %r8d
	bsrl	%r8d, %r8d
	addl	$12, %r8d
	jmp	.L520
.L398:
	xorl	%edi, %edi
.L323:
	xorq	%r8, %rsi
	xorl	%eax, %eax
	rep bsfq	%rsi, %rax
	sarl	$3, %eax
	addl	%eax, %edi
	jmp	.L325
.L340:
	movl	8(%rdi), %edi
	movl	$1, %edx
	movl	$2, %eax
	jmp	.L376
.L403:
	movl	$2, %edx
	movl	$3, %eax
	jmp	.L376
.L388:
	xorl	%edi, %edi
.L278:
	xorq	%r8, %rsi
	xorl	%eax, %eax
	rep bsfq	%rsi, %rax
	sarl	$3, %eax
	addl	%eax, %edi
	cmpl	%edi, -64(%rbp)
	jne	.L275
	jmp	.L531
.L404:
	movl	$3, %edx
	movl	$4, %eax
	jmp	.L376
.L545:
	movl	$5, %edx
	movl	$6, %eax
	jmp	.L376
.L544:
	movl	$4, %edx
	movl	$5, %eax
	jmp	.L376
.L543:
	movq	%r11, %rdx
	movl	$0, -84(%rbp)
	jmp	.L294
.L391:
	movl	$0, -84(%rbp)
	jmp	.L295
.L528:
	movl	-200(%rbp), %ebx
	xorl	%edx, %edx
	movl	%ebx, -204(%rbp)
	jmp	.L246
.L548:
	movq	%r10, %rdx
	movl	$0, -64(%rbp)
	jmp	.L249
.L381:
	movl	$0, -64(%rbp)
	jmp	.L250
.L414:
	movl	$14, %edx
	movl	$15, %eax
	jmp	.L376
.L546:
	movl	$15, %edx
	movl	$16, %eax
	jmp	.L376
.L407:
	movl	$7, %edx
	movl	$8, %eax
	jmp	.L376
.L408:
	movl	$8, %edx
	movl	$9, %eax
	jmp	.L376
.L409:
	movl	$9, %edx
	movl	$10, %eax
	jmp	.L376
.L410:
	movl	$10, %edx
	movl	$11, %eax
	jmp	.L376
.L411:
	movl	$11, %edx
	movl	$12, %eax
	jmp	.L376
.L412:
	movl	$12, %edx
	movl	$13, %eax
	jmp	.L376
.L413:
	movl	$13, %edx
	movl	$14, %eax
	jmp	.L376
.L406:
	movl	$6, %edx
	movl	$7, %eax
	jmp	.L376
.L547:
	movl	-72(%rbp), %edx
	addl	$15, %edx
	jmp	.L355
	.cfi_endproc
.LFE6242:
	.size	_ZN6brotli24CreateBackwardReferencesINS_23HashLongestMatchQuicklyILi17ELi4EEELb0ELb0EEEvmmPKhmPKfmmdiPT_PiS9_PNS_7CommandES9_, .-_ZN6brotli24CreateBackwardReferencesINS_23HashLongestMatchQuicklyILi17ELi4EEELb0ELb0EEEvmmPKhmPKfmmdiPT_PiS9_PNS_7CommandES9_
	.section	.text.unlikely._ZN6brotli24CreateBackwardReferencesINS_23HashLongestMatchQuicklyILi17ELi4EEELb0ELb0EEEvmmPKhmPKfmmdiPT_PiS9_PNS_7CommandES9_,"axG",@progbits,_ZN6brotli24CreateBackwardReferencesINS_23HashLongestMatchQuicklyILi17ELi4EEELb0ELb0EEEvmmPKhmPKfmmdiPT_PiS9_PNS_7CommandES9_,comdat
.LCOLDE6:
	.section	.text._ZN6brotli24CreateBackwardReferencesINS_23HashLongestMatchQuicklyILi17ELi4EEELb0ELb0EEEvmmPKhmPKfmmdiPT_PiS9_PNS_7CommandES9_,"axG",@progbits,_ZN6brotli24CreateBackwardReferencesINS_23HashLongestMatchQuicklyILi17ELi4EEELb0ELb0EEEvmmPKhmPKfmmdiPT_PiS9_PNS_7CommandES9_,comdat
.LHOTE6:
	.section	.text.unlikely._ZN6brotli24CreateBackwardReferencesINS_16HashLongestMatchILi14ELi4ELi4ELi4ELb0ELb0EEELb0ELb0EEEvmmPKhmPKfmmdiPT_PiS9_PNS_7CommandES9_,"axG",@progbits,_ZN6brotli24CreateBackwardReferencesINS_16HashLongestMatchILi14ELi4ELi4ELi4ELb0ELb0EEELb0ELb0EEEvmmPKhmPKfmmdiPT_PiS9_PNS_7CommandES9_,comdat
.LCOLDB7:
	.section	.text._ZN6brotli24CreateBackwardReferencesINS_16HashLongestMatchILi14ELi4ELi4ELi4ELb0ELb0EEELb0ELb0EEEvmmPKhmPKfmmdiPT_PiS9_PNS_7CommandES9_,"axG",@progbits,_ZN6brotli24CreateBackwardReferencesINS_16HashLongestMatchILi14ELi4ELi4ELi4ELb0ELb0EEELb0ELb0EEEvmmPKhmPKfmmdiPT_PiS9_PNS_7CommandES9_,comdat
.LHOTB7:
	.p2align 4,,15
	.weak	_ZN6brotli24CreateBackwardReferencesINS_16HashLongestMatchILi14ELi4ELi4ELi4ELb0ELb0EEELb0ELb0EEEvmmPKhmPKfmmdiPT_PiS9_PNS_7CommandES9_
	.type	_ZN6brotli24CreateBackwardReferencesINS_16HashLongestMatchILi14ELi4ELi4ELi4ELb0ELb0EEELb0ELb0EEEvmmPKhmPKfmmdiPT_PiS9_PNS_7CommandES9_, @function
_ZN6brotli24CreateBackwardReferencesINS_16HashLongestMatchILi14ELi4ELi4ELi4ELb0ELb0EEELb0ELb0EEEvmmPKhmPKfmmdiPT_PiS9_PNS_7CommandES9_:
.LFB6248:
	.cfi_startproc
	pushq	%rbp
	.cfi_def_cfa_offset 16
	.cfi_offset 6, -16
	movq	%rsp, %rbp
	.cfi_def_cfa_register 6
	pushq	%r15
	pushq	%r14
	pushq	%r13
	pushq	%r12
	.cfi_offset 15, -24
	.cfi_offset 14, -32
	.cfi_offset 13, -40
	.cfi_offset 12, -48
	movq	%rcx, %r15
	pushq	%rbx
	subq	$96, %rsp
	cmpq	$2, %rdi
	.cfi_offset 3, -56
	movq	%rdx, -72(%rbp)
	movq	32(%rbp), %r14
	movl	%esi, %edx
	jbe	.L552
	cmpq	$2, %rsi
	jbe	.L552
	movq	-72(%rbp), %rbx
	leaq	-3(%rsi), %rax
	andq	%rcx, %rax
	imull	$506832829, (%rbx,%rax), %eax
	shrl	$18, %eax
	leaq	(%r14,%rax,2), %r8
	salq	$4, %rax
	movzwl	(%r8), %ecx
	movq	%rcx, %r9
	addl	$1, %ecx
	andl	$15, %r9d
	leaq	8192(%r9,%rax), %rax
	leal	-3(%rsi), %r9d
	movl	%r9d, (%r14,%rax,4)
	leaq	-2(%rsi), %rax
	movw	%cx, (%r8)
	andq	%r15, %rax
	imull	$506832829, (%rbx,%rax), %eax
	shrl	$18, %eax
	leaq	(%r14,%rax,2), %r8
	salq	$4, %rax
	movzwl	(%r8), %ecx
	movq	%rcx, %r9
	addl	$1, %ecx
	andl	$15, %r9d
	leaq	8192(%r9,%rax), %rax
	leal	-2(%rsi), %r9d
	movl	%r9d, (%r14,%rax,4)
	leaq	-1(%rsi), %rax
	movw	%cx, (%r8)
	andq	%r15, %rax
	imull	$506832829, (%rbx,%rax), %eax
	shrl	$18, %eax
	leaq	(%r14,%rax,2), %r8
	salq	$4, %rax
	movzwl	(%r8), %ecx
	movq	%rcx, %r9
	addl	$1, %ecx
	andl	$15, %r9d
	leaq	8192(%r9,%rax), %rax
	leal	-1(%rsi), %r9d
	movl	%r9d, (%r14,%rax,4)
	movw	%cx, (%r8)
.L552:
	andq	%r15, %rsi
	movl	$256, %ecx
	movq	48(%rbp), %rax
	subl	%esi, %edx
	addq	%rsi, %rdi
	cmpl	$9, 24(%rbp)
	movl	%edx, -132(%rbp)
	movl	$2048, %edx
	movq	%rsi, -112(%rbp)
	movl	(%rax), %eax
	movq	%rdi, -216(%rbp)
	cmovl	%ecx, %edx
	movw	$64, %cx
	movl	%edx, -244(%rbp)
	movl	$512, %edx
	movl	%eax, -176(%rbp)
	cmovl	%ecx, %edx
	movl	%esi, %eax
	leal	(%rdx,%rsi), %ebx
	movl	%edx, -232(%rbp)
	leaq	3(%rsi), %rdx
	cmpq	%rdx, %rdi
	movl	%ebx, -144(%rbp)
	jbe	.L841
	movl	-216(%rbp), %eax
	movsd	.LC1(%rip), %xmm6
	movsd	.LC0(%rip), %xmm5
	movq	%r14, 32(%rbp)
	movsd	.LC3(%rip), %xmm7
	movl	%eax, -228(%rbp)
	movslq	-132(%rbp), %rax
	movq	%rax, -160(%rbp)
	movq	56(%rbp), %rax
	movq	%rax, -240(%rbp)
	.p2align 4,,10
	.p2align 3
.L691:
	movq	-112(%rbp), %rbx
	movl	-228(%rbp), %eax
	movq	-72(%rbp), %rdi
	movq	40(%rbp), %r11
	movapd	%xmm0, %xmm1
	movapd	%xmm0, %xmm3
	movq	%rbx, %r14
	addq	-160(%rbp), %r14
	subl	%ebx, %eax
	cmpq	16(%rbp), %r14
	movl	%eax, -96(%rbp)
	cmova	16(%rbp), %r14
	movb	$0, -120(%rbp)
	movl	$0, -92(%rbp)
	movl	$0, -128(%rbp)
	movq	%r14, %r12
	movl	%r14d, -80(%rbp)
	movl	-132(%rbp), %r14d
	leal	(%r14,%rbx), %esi
	movq	%rsi, %rbx
	movq	%rsi, %r14
	andq	%r15, %rbx
	addq	%rbx, %rdi
	movq	%rbx, -56(%rbp)
	movl	%eax, %ebx
	shrq	$3, %rax
	movq	%rdi, -88(%rbp)
	movq	%rax, -104(%rbp)
	movl	%ebx, %eax
	xorl	%ebx, %ebx
	andl	$7, %eax
	movl	%eax, %r10d
	movl	%eax, -136(%rbp)
	xorl	%eax, %eax
	leaq	-1(%r10), %r13
.L569:
	leaq	_ZN6brotliL19kDistanceCacheIndexE(%rip), %rdi
	movslq	(%rdi,%rax), %rcx
	leaq	_ZN6brotliL20kDistanceCacheOffsetE(%rip), %rdi
	movl	(%rdi,%rax), %edx
	addl	(%r11,%rcx,4), %edx
	movl	%r14d, %ecx
	subl	%edx, %ecx
	cmpq	%rcx, %rsi
	jbe	.L556
	cmpl	%edx, -80(%rbp)
	jb	.L556
	movq	-56(%rbp), %r8
	movslq	%ebx, %rdi
	addq	%rdi, %r8
	cmpq	%r8, %r15
	jb	.L556
	andq	%r15, %rcx
	addq	%rcx, %rdi
	cmpq	%rdi, %r15
	jb	.L556
	movq	-72(%rbp), %r9
	movzbl	(%r9,%rdi), %edi
	cmpb	%dil, (%r9,%r8)
	je	.L842
	.p2align 4,,10
	.p2align 3
.L556:
	addq	$4, %rax
	cmpq	$16, %rax
	jne	.L569
	movq	-88(%rbp), %rax
	movq	32(%rbp), %rdi
	imull	$506832829, (%rax), %r8d
	shrl	$18, %r8d
	movl	%r8d, %eax
	movl	%r8d, -124(%rbp)
	leaq	512(%rax), %r11
	movzwl	(%rdi,%rax,2), %eax
	salq	$6, %r11
	addq	32(%rbp), %r11
	cmpw	$16, %ax
	leal	-16(%rax), %r13d
	ja	.L570
	xorl	%r13d, %r13d
.L570:
	subl	$1, %eax
	cmpl	%r13d, %eax
	jl	.L571
	leaq	-1(%r10), %rsi
	movl	%r12d, %edi
	movq	%rdi, -64(%rbp)
	movq	%rsi, -152(%rbp)
	jmp	.L781
	.p2align 4,,10
	.p2align 3
.L572:
	subl	$1, %eax
	cmpl	%r13d, %eax
	jl	.L571
.L781:
	movl	%eax, %edx
	andl	$15, %edx
	movl	(%r11,%rdx,4), %edx
	testl	%edx, %edx
	js	.L572
	movl	%r14d, %edi
	subl	%edx, %edi
	movl	%edi, %ecx
	cmpq	-64(%rbp), %rcx
	ja	.L571
	movslq	%ebx, %rcx
	addq	-56(%rbp), %rcx
	cmpq	%rcx, %r15
	jb	.L572
	andl	%r15d, %edx
	leal	(%rdx,%rbx), %esi
	movslq	%esi, %rsi
	cmpq	%rsi, %r15
	jb	.L572
	movq	-72(%rbp), %r9
	movzbl	(%r9,%rsi), %esi
	cmpb	%sil, (%r9,%rcx)
	jne	.L572
	addq	%r9, %rdx
	xorl	%r10d, %r10d
	cmpq	$0, -104(%rbp)
	movq	-88(%rbp), %rcx
	je	.L574
	movq	(%rcx), %r12
	movq	(%rdx), %r9
	cmpq	%r9, %r12
	jne	.L700
	leaq	8(%rdx), %r8
	movq	%rdx, -168(%rbp)
	movq	-104(%rbp), %rsi
	movq	%rcx, %rdx
	jmp	.L578
	.p2align 4,,10
	.p2align 3
.L576:
	addq	$8, %r8
	movq	(%rcx), %r12
	movq	-8(%r8), %r9
	cmpq	%r9, %r12
	jne	.L575
.L578:
	addq	$8, %rcx
	movl	%ecx, %r10d
	subl	%edx, %r10d
	subq	$1, %rsi
	jne	.L576
	movq	-168(%rbp), %rdx
.L574:
	movl	-136(%rbp), %r8d
	testl	%r8d, %r8d
	je	.L577
	movslq	%r10d, %rsi
	addq	%rsi, %rdx
	movzbl	(%rcx), %esi
	cmpb	%sil, (%rdx)
	jne	.L577
	xorl	%esi, %esi
	movq	-152(%rbp), %r9
	jmp	.L583
	.p2align 4,,10
	.p2align 3
.L582:
	movzbl	1(%rdx,%rsi), %r8d
	addq	$1, %rsi
	cmpb	(%rcx,%rsi), %r8b
	jne	.L577
.L583:
	addl	$1, %r10d
	cmpq	%r9, %rsi
	jne	.L582
.L577:
	cmpl	$3, %r10d
	jle	.L572
	pxor	%xmm2, %xmm2
	testl	%edi, %edi
	movsd	.LC0(%rip), %xmm4
	cvtsi2sd	%r10d, %xmm2
	mulsd	.LC1(%rip), %xmm2
	je	.L584
	pxor	%xmm4, %xmm4
	bsrl	%edi, %edx
	cvtsi2sd	%edx, %xmm4
	mulsd	.LC3(%rip), %xmm4
.L584:
	subsd	%xmm4, %xmm2
	ucomisd	%xmm3, %xmm2
	jbe	.L572
	subl	$1, %eax
	movl	%edi, -128(%rbp)
	movl	%r10d, %ebx
	cmpl	%r13d, %eax
	movapd	%xmm2, %xmm1
	movl	%r10d, -92(%rbp)
	movapd	%xmm2, %xmm3
	movb	$1, -120(%rbp)
	jge	.L781
	.p2align 4,,10
	.p2align 3
.L571:
	cmpb	$0, -120(%rbp)
	jne	.L587
	movq	32(%rbp), %rax
	movq	1081344(%rax), %r12
	movq	1081352(%rax), %rbx
	movq	%r12, %rax
	shrq	$7, %rax
	cmpq	%rax, %rbx
	jb	.L588
	movl	-124(%rbp), %r8d
	leaq	_ZN6brotliL21kStaticDictionaryHashE(%rip), %r13
	addq	$1, %r12
	addl	%r8d, %r8d
	leal	2(%r8), %eax
	movl	%eax, -56(%rbp)
	movl	-80(%rbp), %eax
	movq	%rbx, -80(%rbp)
	addl	$1, %eax
	movl	%eax, -64(%rbp)
.L603:
	movq	32(%rbp), %rax
	movq	%r12, 1081344(%rax)
	movl	%r8d, %eax
	movzwl	0(%r13,%rax,2), %r11d
	testw	%r11w, %r11w
	je	.L589
	movl	%r11d, %eax
	leaq	_ZL32kBrotliDictionaryOffsetsByLength(%rip), %rdx
	andl	$31, %eax
	movzwl	%ax, %ecx
	movq	%rcx, %rbx
	cmpl	%ebx, -96(%rbp)
	movl	(%rdx,%rcx,4), %ecx
	jb	.L589
	movzwl	%r11w, %edx
	leaq	_ZL17kBrotliDictionary(%rip), %rdi
	sarl	$5, %edx
	movl	%edx, -92(%rbp)
	imull	%ebx, %edx
	leal	(%rcx,%rdx), %r10d
	movzwl	%ax, %edx
	shrq	$3, %rdx
	movslq	%r10d, %r10
	addq	%rdi, %r10
	xorl	%edi, %edi
	testq	%rdx, %rdx
	movq	%r10, %rax
	je	.L591
	movq	-88(%rbp), %rax
	movq	(%r10), %r9
	movq	(%rax), %rsi
	cmpq	%rsi, %r9
	jne	.L702
	leaq	8(%rax), %rcx
	movq	%r10, %rax
	jmp	.L595
	.p2align 4,,10
	.p2align 3
.L593:
	addq	$8, %rcx
	movq	(%rax), %r9
	movq	-8(%rcx), %rsi
	cmpq	%rsi, %r9
	jne	.L592
.L595:
	addq	$8, %rax
	movl	%eax, %edi
	subl	%r10d, %edi
	subq	$1, %rdx
	jne	.L593
.L591:
	andl	$7, %r11d
	testw	%r11w, %r11w
	movzwl	%r11w, %r9d
	je	.L594
	movslq	%edi, %rsi
	addq	-88(%rbp), %rsi
	movzbl	(%rax), %ecx
	cmpb	%cl, (%rsi)
	jne	.L594
	subq	$1, %r9
	xorl	%edx, %edx
	jmp	.L600
	.p2align 4,,10
	.p2align 3
.L599:
	movzbl	1(%rsi,%rdx), %ecx
	addq	$1, %rdx
	cmpb	(%rax,%rdx), %cl
	jne	.L594
.L600:
	addl	$1, %edi
	cmpq	%r9, %rdx
	jne	.L599
.L594:
	cmpl	%edi, %ebx
	je	.L843
	.p2align 4,,10
	.p2align 3
.L589:
	addl	$1, %r8d
	addq	$1, %r12
	cmpl	-56(%rbp), %r8d
	jne	.L603
.L588:
	movq	-72(%rbp), %rdi
	movq	-112(%rbp), %rbx
	addl	$1, -176(%rbp)
	imull	$506832829, (%rdi,%rbx), %eax
	movq	32(%rbp), %rdi
	shrl	$18, %eax
	leaq	(%rdi,%rax,2), %rcx
	salq	$4, %rax
	movzwl	(%rcx), %edx
	movq	%rdx, %rsi
	addl	$1, %edx
	andl	$15, %esi
	leaq	8192(%rsi,%rax), %rax
	movl	%r14d, (%rdi,%rax,4)
	movw	%dx, (%rcx)
	movq	%rbx, %rax
	movslq	-144(%rbp), %rdx
	addq	$1, %rax
	cmpq	%rdx, %rax
	jbe	.L730
	movl	-144(%rbp), %edx
	addl	-244(%rbp), %edx
	movslq	%edx, %rdx
	cmpq	%rdx, %rax
	movq	-112(%rbp), %rdx
	jbe	.L688
	movq	-216(%rbp), %rbx
	addq	$17, %rdx
	leaq	-4(%rbx), %rcx
	cmpq	%rcx, %rdx
	cmova	%rcx, %rdx
	movslq	%edx, %rdi
	cmpq	%rdi, %rax
	jnb	.L730
	movl	-176(%rbp), %r8d
	movl	-132(%rbp), %r10d
	movq	%rax, %rdx
	movq	-72(%rbp), %r11
	movq	32(%rbp), %r9
	.p2align 4,,10
	.p2align 3
.L689:
	imull	$506832829, (%r11,%rdx), %eax
	addl	$4, %r8d
	shrl	$18, %eax
	leaq	(%r9,%rax,2), %rsi
	salq	$4, %rax
	movzwl	(%rsi), %ecx
	movq	%rcx, %rbx
	addl	$1, %ecx
	andl	$15, %ebx
	leaq	8192(%rbx,%rax), %rax
	leal	(%r10,%rdx), %ebx
	addq	$4, %rdx
	cmpq	%rdi, %rdx
	movl	%ebx, (%r9,%rax,4)
	movw	%cx, (%rsi)
	jb	.L689
.L834:
	movl	%r8d, -176(%rbp)
	movq	%rdx, -112(%rbp)
	movq	%rdx, %rax
.L685:
	addq	$3, %rax
	cmpq	%rax, -216(%rbp)
	ja	.L691
	movq	-240(%rbp), %rdx
	subq	56(%rbp), %rdx
	movl	-112(%rbp), %eax
	shrq	$5, %rdx
.L555:
	movl	-176(%rbp), %ebx
	subl	%eax, %ebx
	movl	-228(%rbp), %eax
	addl	%ebx, %eax
	movq	48(%rbp), %rbx
	movl	%eax, (%rbx)
	movq	64(%rbp), %rax
	addl	%edx, (%rax)
	addq	$96, %rsp
	popq	%rbx
	popq	%r12
	popq	%r13
	popq	%r14
	popq	%r15
	popq	%rbp
	.cfi_remember_state
	.cfi_def_cfa 7, 8
	ret
.L843:
	.cfi_restore_state
	pxor	%xmm1, %xmm1
	movl	-92(%rbp), %edx
	addl	-64(%rbp), %edx
	movsd	.LC0(%rip), %xmm2
	cvtsi2sd	%ebx, %xmm1
	mulsd	.LC1(%rip), %xmm1
	je	.L601
	pxor	%xmm2, %xmm2
	bsrl	%edx, %eax
	cvtsi2sd	%eax, %xmm2
	mulsd	.LC3(%rip), %xmm2
.L601:
	subsd	%xmm2, %xmm1
	ucomisd	%xmm3, %xmm1
	jbe	.L589
	movl	%ebx, -92(%rbp)
	movq	-80(%rbp), %rbx
	movq	32(%rbp), %rax
	movl	%edx, -128(%rbp)
	leaq	1(%rbx), %r14
	movq	%r14, 1081352(%rax)
	.p2align 4,,10
	.p2align 3
.L587:
	movl	-96(%rbp), %eax
	movq	-112(%rbp), %rbx
	movq	-160(%rbp), %rdi
	movsd	.LC1(%rip), %xmm8
	movl	%eax, -104(%rbp)
	subl	$4, %eax
	movq	%rbx, -80(%rbp)
	movl	%eax, -208(%rbp)
	movl	-132(%rbp), %eax
	leaq	1(%rbx,%rdi), %rdi
	movq	%rdi, -152(%rbp)
	addl	$1, %eax
	movl	%eax, -204(%rbp)
.L653:
	movl	-176(%rbp), %eax
	subl	-112(%rbp), %eax
	movl	%ebx, -96(%rbp)
	subl	$1, -104(%rbp)
	movl	%eax, -180(%rbp)
	addl	%ebx, %eax
	xorl	%ebx, %ebx
	cmpl	$3, 24(%rbp)
	movl	%eax, -124(%rbp)
	jg	.L604
	movl	-92(%rbp), %eax
	leal	-1(%rax), %ebx
	movl	-104(%rbp), %eax
	cmpl	%eax, %ebx
	cmovg	%eax, %ebx
.L604:
	movq	-152(%rbp), %rdi
	movq	-72(%rbp), %r14
	cmpq	%rdi, 16(%rbp)
	movl	-204(%rbp), %r12d
	movq	32(%rbp), %r9
	movq	40(%rbp), %r11
	movq	%rdi, %r13
	movq	%r14, %rax
	cmovbe	16(%rbp), %r13
	subq	-160(%rbp), %rax
	movapd	%xmm0, %xmm2
	movapd	%xmm0, %xmm9
	movl	$0, -172(%rbp)
	movb	$0, -136(%rbp)
	movl	$0, -168(%rbp)
	movl	%r13d, -88(%rbp)
	imull	$506832829, -1(%rdi,%rax), %eax
	movq	32(%rbp), %rdi
	shrl	$18, %eax
	leaq	(%rdi,%rax,2), %rcx
	salq	$4, %rax
	movl	-96(%rbp), %edi
	movzwl	(%rcx), %edx
	addl	%edi, %r12d
	movq	%rdx, %rsi
	addl	$1, %edx
	andl	$15, %esi
	leaq	8192(%rsi,%rax), %rax
	movl	-132(%rbp), %esi
	addl	%edi, %esi
	movl	%esi, (%r9,%rax,4)
	movl	%r12d, %esi
	movw	%dx, (%rcx)
	movq	%rsi, %rax
	andq	%r15, %rax
	movq	%rax, %rdi
	movq	%rax, -56(%rbp)
	movq	%r14, %rax
	addq	%rdi, %rax
	movl	-104(%rbp), %edi
	movq	%rax, -120(%rbp)
	movl	%edi, %eax
	shrq	$3, %rax
	movq	%rax, -144(%rbp)
	movl	%edi, %eax
	andl	$7, %eax
	movl	%eax, %r10d
	movl	%eax, -184(%rbp)
	xorl	%eax, %eax
	leaq	-1(%r10), %r14
.L618:
	leaq	_ZN6brotliL19kDistanceCacheIndexE(%rip), %rdi
	movslq	(%rdi,%rax), %rcx
	leaq	_ZN6brotliL20kDistanceCacheOffsetE(%rip), %rdi
	movl	(%rdi,%rax), %edx
	addl	(%r11,%rcx,4), %edx
	movl	%r12d, %ecx
	subl	%edx, %ecx
	cmpq	%rcx, %rsi
	jbe	.L605
	cmpl	%edx, -88(%rbp)
	jb	.L605
	movq	-56(%rbp), %r8
	movslq	%ebx, %rdi
	addq	%rdi, %r8
	cmpq	%r8, %r15
	jb	.L605
	andq	%r15, %rcx
	addq	%rcx, %rdi
	cmpq	%rdi, %r15
	jb	.L605
	movq	-72(%rbp), %r9
	movzbl	(%r9,%rdi), %edi
	cmpb	%dil, (%r9,%r8)
	je	.L844
	.p2align 4,,10
	.p2align 3
.L605:
	addq	$4, %rax
	cmpq	$16, %rax
	jne	.L618
	movq	-120(%rbp), %rax
	movq	32(%rbp), %rdi
	imull	$506832829, (%rax), %eax
	shrl	$18, %eax
	leaq	512(%rax), %r11
	movl	%eax, -192(%rbp)
	movzwl	(%rdi,%rax,2), %eax
	salq	$6, %r11
	addq	32(%rbp), %r11
	cmpw	$16, %ax
	leal	-16(%rax), %r14d
	ja	.L619
	xorl	%r14d, %r14d
.L619:
	subl	$1, %eax
	cmpl	%r14d, %eax
	jl	.L620
	movl	%r13d, %edi
	movq	%rdi, -64(%rbp)
	leaq	-1(%r10), %rdi
	movq	%rdi, -200(%rbp)
	jmp	.L780
	.p2align 4,,10
	.p2align 3
.L621:
	subl	$1, %eax
	cmpl	%r14d, %eax
	jl	.L620
.L780:
	movl	%eax, %edx
	andl	$15, %edx
	movl	(%r11,%rdx,4), %edx
	testl	%edx, %edx
	js	.L621
	movl	%r12d, %edi
	subl	%edx, %edi
	movl	%edi, %ecx
	cmpq	-64(%rbp), %rcx
	ja	.L620
	movslq	%ebx, %rcx
	addq	-56(%rbp), %rcx
	cmpq	%rcx, %r15
	jb	.L621
	andl	%r15d, %edx
	leal	(%rdx,%rbx), %esi
	movslq	%esi, %rsi
	cmpq	%rsi, %r15
	jb	.L621
	movq	-72(%rbp), %r9
	movzbl	(%r9,%rsi), %esi
	cmpb	%sil, (%r9,%rcx)
	jne	.L621
	addq	%r9, %rdx
	xorl	%r10d, %r10d
	cmpq	$0, -144(%rbp)
	movq	-120(%rbp), %rcx
	je	.L623
	movq	(%rcx), %r13
	movq	(%rdx), %r9
	cmpq	%r9, %r13
	jne	.L707
	leaq	8(%rdx), %r8
	movq	%rdx, -224(%rbp)
	movq	-144(%rbp), %rsi
	movq	%rcx, %rdx
	jmp	.L627
	.p2align 4,,10
	.p2align 3
.L625:
	addq	$8, %r8
	movq	(%rcx), %r13
	movq	-8(%r8), %r9
	cmpq	%r9, %r13
	jne	.L624
.L627:
	addq	$8, %rcx
	movl	%ecx, %r10d
	subl	%edx, %r10d
	subq	$1, %rsi
	jne	.L625
	movq	-224(%rbp), %rdx
.L623:
	movl	-184(%rbp), %esi
	testl	%esi, %esi
	je	.L626
	movslq	%r10d, %rsi
	addq	%rsi, %rdx
	movzbl	(%rcx), %esi
	cmpb	%sil, (%rdx)
	jne	.L626
	xorl	%esi, %esi
	movq	-200(%rbp), %r9
	jmp	.L632
	.p2align 4,,10
	.p2align 3
.L631:
	movzbl	1(%rdx,%rsi), %r8d
	addq	$1, %rsi
	cmpb	(%rcx,%rsi), %r8b
	jne	.L626
.L632:
	addl	$1, %r10d
	cmpq	%r9, %rsi
	jne	.L631
.L626:
	cmpl	$3, %r10d
	jle	.L621
	pxor	%xmm3, %xmm3
	testl	%edi, %edi
	movapd	%xmm5, %xmm4
	cvtsi2sd	%r10d, %xmm3
	mulsd	%xmm6, %xmm3
	je	.L633
	pxor	%xmm4, %xmm4
	bsrl	%edi, %edx
	cvtsi2sd	%edx, %xmm4
	mulsd	%xmm7, %xmm4
.L633:
	subsd	%xmm4, %xmm3
	ucomisd	%xmm9, %xmm3
	jbe	.L621
	subl	$1, %eax
	movl	%edi, -168(%rbp)
	movl	%r10d, %ebx
	cmpl	%r14d, %eax
	movapd	%xmm3, %xmm2
	movl	%r10d, -172(%rbp)
	movapd	%xmm3, %xmm9
	movb	$1, -136(%rbp)
	jge	.L780
	.p2align 4,,10
	.p2align 3
.L620:
	cmpb	$0, -136(%rbp)
	jne	.L636
	movq	32(%rbp), %rax
	movq	1081344(%rax), %r9
	movq	1081352(%rax), %r14
	movq	%r9, %rax
	shrq	$7, %rax
	cmpq	%rax, %r14
	jb	.L694
	movl	-192(%rbp), %r11d
	movl	-88(%rbp), %eax
	leaq	_ZN6brotliL21kStaticDictionaryHashE(%rip), %r13
	addq	$1, %r9
	movq	%r14, -64(%rbp)
	addl	%r11d, %r11d
	addl	$1, %eax
	leal	2(%r11), %r12d
	movl	%eax, -56(%rbp)
.L652:
	movq	32(%rbp), %rax
	movq	%r9, 1081344(%rax)
	movl	%r11d, %eax
	movzwl	0(%r13,%rax,2), %ebx
	testw	%bx, %bx
	je	.L638
	movl	%ebx, %eax
	leaq	_ZL32kBrotliDictionaryOffsetsByLength(%rip), %rdx
	andl	$31, %eax
	movzwl	%ax, %ecx
	cmpl	%ecx, -104(%rbp)
	movq	%rcx, %r14
	movl	(%rdx,%rcx,4), %r10d
	jb	.L638
	movzwl	%bx, %edx
	leaq	_ZL17kBrotliDictionary(%rip), %rdi
	sarl	$5, %edx
	movl	%edx, -88(%rbp)
	imull	%ecx, %edx
	addl	%edx, %r10d
	movzwl	%ax, %edx
	movslq	%r10d, %r10
	shrq	$3, %rdx
	addq	%rdi, %r10
	xorl	%edi, %edi
	testq	%rdx, %rdx
	movq	%r10, %rax
	je	.L640
	movq	-120(%rbp), %rax
	movq	(%r10), %r8
	movq	(%rax), %rsi
	cmpq	%rsi, %r8
	jne	.L709
	leaq	8(%rax), %rcx
	movq	%r10, %rax
	jmp	.L644
	.p2align 4,,10
	.p2align 3
.L642:
	addq	$8, %rcx
	movq	(%rax), %r8
	movq	-8(%rcx), %rsi
	cmpq	%rsi, %r8
	jne	.L641
.L644:
	addq	$8, %rax
	movl	%eax, %edi
	subl	%r10d, %edi
	subq	$1, %rdx
	jne	.L642
.L640:
	andl	$7, %ebx
	testw	%bx, %bx
	movzwl	%bx, %r8d
	je	.L643
	movslq	%edi, %rsi
	addq	-120(%rbp), %rsi
	movzbl	(%rax), %ebx
	cmpb	%bl, (%rsi)
	jne	.L643
	subq	$1, %r8
	xorl	%edx, %edx
	jmp	.L649
	.p2align 4,,10
	.p2align 3
.L648:
	movzbl	1(%rsi,%rdx), %ecx
	addq	$1, %rdx
	cmpb	(%rax,%rdx), %cl
	jne	.L643
.L649:
	addl	$1, %edi
	cmpq	%r8, %rdx
	jne	.L648
.L643:
	cmpl	%edi, %r14d
	je	.L845
	.p2align 4,,10
	.p2align 3
.L638:
	addl	$1, %r11d
	addq	$1, %r9
	cmpl	%r12d, %r11d
	jne	.L652
.L694:
	movl	-96(%rbp), %eax
	addl	-232(%rbp), %eax
	movl	-92(%rbp), %ebx
	movslq	-128(%rbp), %rdx
	leal	(%rax,%rbx,2), %eax
	leal	16(%rdx), %ecx
	movl	%eax, -144(%rbp)
	movq	-80(%rbp), %rax
	addq	-160(%rbp), %rax
	cmpq	16(%rbp), %rax
	cmova	16(%rbp), %rax
	cmpq	%rax, %rdx
	jbe	.L654
	movl	-128(%rbp), %eax
	addl	$15, %eax
	cmpl	$15, %eax
	jle	.L672
.L673:
	leal	-13(%rcx), %edx
	bsrl	%edx, %eax
	movl	%edx, %esi
	leal	-1(%rax), %ecx
	leal	10(%rax,%rax), %eax
	sarl	%cl, %esi
	movl	%esi, %edi
	sall	%cl, %edi
	sall	$24, %ecx
	subl	%edi, %edx
	orl	%ecx, %edx
	addw	%si, %ax
	sete	%r10b
	cmpl	$5, -124(%rbp)
	movl	%edx, %r13d
	movl	%eax, %r12d
	jle	.L846
.L675:
	cmpl	$129, -124(%rbp)
	jle	.L847
	cmpl	$2113, -124(%rbp)
	jle	.L848
	xorl	%r10d, %r10d
	cmpl	$6209, -124(%rbp)
	movl	$40, %r9d
	movl	$21, %edx
	jle	.L676
	cmpl	$22594, -124(%rbp)
	setge	%dl
	movzbl	%dl, %r9d
	movzbl	%dl, %edx
	leal	48(,%r9,8), %r9d
	addl	$22, %edx
	.p2align 4,,10
	.p2align 3
.L676:
	cmpl	$9, -92(%rbp)
	jle	.L849
.L679:
	cmpl	$133, -92(%rbp)
	jle	.L850
	cmpl	$2117, -92(%rbp)
	jle	.L851
	xorl	%r10d, %r10d
	movl	$7, %r11d
	movl	$23, %r8d
.L680:
	leaq	_ZN6brotliL8insextraE(%rip), %rax
	movslq	%edx, %rsi
	leaq	_ZN6brotliL9copyextraE(%rip), %rdi
	movl	-124(%rbp), %r14d
	orl	%r11d, %r9d
	movl	(%rax,%rsi,4), %ecx
	movslq	%r8d, %rax
	movslq	(%rdi,%rax,4), %rbx
	movslq	%ecx, %rdi
	addq	%rbx, %rdi
	leaq	_ZN6brotliL7insbaseE(%rip), %rbx
	subl	(%rbx,%rsi,4), %r14d
	leaq	_ZN6brotliL8copybaseE(%rip), %rbx
	movslq	%r14d, %rsi
	movl	-92(%rbp), %r14d
	subl	(%rbx,%rax,4), %r14d
	testb	%r10b, %r10b
	movslq	%r14d, %rax
	je	.L682
	movl	%r9d, %edx
	orl	$64, %edx
	cmpl	$8, %r8d
	cmovge	%edx, %r9d
.L683:
	movq	-240(%rbp), %rbx
	movl	-124(%rbp), %r14d
	salq	$48, %rdi
	salq	%cl, %rax
	orq	%rax, %rdi
	movl	%r14d, (%rbx)
	movl	-92(%rbp), %r14d
	orq	%rsi, %rdi
	leaq	32(%rbx), %rdx
	movw	%r9w, 8(%rbx)
	movw	%r12w, 10(%rbx)
	movq	%rdi, 16(%rbx)
	movl	%r13d, 24(%rbx)
	cmpl	$1, %r14d
	movl	%r14d, 4(%rbx)
	jle	.L687
	movl	-96(%rbp), %r10d
	addl	-132(%rbp), %r10d
	movq	-72(%rbp), %rdi
	addq	-80(%rbp), %rdi
	movq	32(%rbp), %r9
	leal	1(%r10), %esi
	addl	-92(%rbp), %r10d
	.p2align 4,,10
	.p2align 3
.L686:
	imull	$506832829, 1(%rdi), %eax
	addq	$1, %rdi
	shrl	$18, %eax
	leaq	(%r9,%rax,2), %r8
	salq	$4, %rax
	movzwl	(%r8), %ecx
	movq	%rcx, %r11
	addl	$1, %ecx
	andl	$15, %r11d
	leaq	8192(%r11,%rax), %rax
	movl	%esi, (%r9,%rax,4)
	addl	$1, %esi
	movw	%cx, (%r8)
	cmpl	%r10d, %esi
	jne	.L686
.L687:
	movslq	-92(%rbp), %rax
	movq	%rdx, -240(%rbp)
	addq	-80(%rbp), %rax
	movl	$0, -176(%rbp)
	movq	%rax, -112(%rbp)
	jmp	.L685
.L845:
	pxor	%xmm2, %xmm2
	movl	-88(%rbp), %edx
	addl	-56(%rbp), %edx
	movsd	.LC0(%rip), %xmm3
	cvtsi2sd	%r14d, %xmm2
	mulsd	%xmm8, %xmm2
	je	.L650
	pxor	%xmm3, %xmm3
	bsrl	%edx, %eax
	cvtsi2sd	%eax, %xmm3
	mulsd	.LC3(%rip), %xmm3
.L650:
	subsd	%xmm3, %xmm2
	ucomisd	%xmm9, %xmm2
	jbe	.L638
	movl	%r14d, -172(%rbp)
	movq	-64(%rbp), %r14
	movq	32(%rbp), %rax
	movl	%edx, -168(%rbp)
	addq	$1, %r14
	movq	%r14, 1081352(%rax)
	.p2align 4,,10
	.p2align 3
.L636:
	addsd	.LC4(%rip), %xmm1
	ucomisd	%xmm1, %xmm2
	jb	.L694
	addq	$1, -80(%rbp)
	movl	-180(%rbp), %ebx
	movq	-80(%rbp), %rax
	addq	$1, -152(%rbp)
	movl	-208(%rbp), %edi
	addl	%eax, %ebx
	cmpl	%edi, -104(%rbp)
	movl	%ebx, %eax
	je	.L852
	movl	-168(%rbp), %eax
	movapd	%xmm2, %xmm1
	movq	-80(%rbp), %rbx
	movl	%eax, -128(%rbp)
	movl	-172(%rbp), %eax
	movl	%eax, -92(%rbp)
	jmp	.L653
.L707:
	xorl	%r10d, %r10d
	.p2align 4,,10
	.p2align 3
.L624:
	xorq	%r13, %r9
	rep bsfq	%r9, %r9
	sarl	$3, %r9d
	addl	%r9d, %r10d
	jmp	.L626
	.p2align 4,,10
	.p2align 3
.L852:
	movl	%eax, -124(%rbp)
	movl	-80(%rbp), %eax
	movl	-168(%rbp), %ebx
	movl	%eax, -96(%rbp)
	movl	-172(%rbp), %eax
	movl	%ebx, -128(%rbp)
	movl	%eax, -92(%rbp)
	jmp	.L694
	.p2align 4,,10
	.p2align 3
.L682:
	sarl	$3, %edx
	sarl	$3, %r8d
	leal	(%rdx,%rdx,2), %edx
	addl	%edx, %r8d
	leaq	_ZZN6brotliL18CombineLengthCodesEiiiE5cells(%rip), %rdx
	movslq	%r8d, %r8
	movl	(%rdx,%r8,4), %edx
	sall	$6, %edx
	orl	%edx, %r9d
	jmp	.L683
	.p2align 4,,10
	.p2align 3
.L730:
	movq	%rax, -112(%rbp)
	jmp	.L685
.L700:
	xorl	%r10d, %r10d
	.p2align 4,,10
	.p2align 3
.L575:
	xorq	%r12, %r9
	xorl	%edx, %edx
	rep bsfq	%r9, %rdx
	sarl	$3, %edx
	addl	%edx, %r10d
	jmp	.L577
	.p2align 4,,10
	.p2align 3
.L654:
	movq	40(%rbp), %rax
	movl	(%rax), %edx
	movl	-128(%rbp), %eax
	cmpl	%eax, %edx
	je	.L712
	movq	40(%rbp), %rbx
	movl	4(%rbx), %esi
	cmpl	%eax, %esi
	je	.L657
	movl	8(%rbx), %r8d
	cmpl	%eax, %r8d
	je	.L713
	cmpl	%eax, 12(%rbx)
	je	.L714
	cmpl	$5, %eax
	movl	%eax, %ebx
	jle	.L659
	cmpl	$1, 24(%rbp)
	jle	.L659
	leal	-1(%rdx), %eax
	cmpl	%ebx, %eax
	je	.L853
	leal	1(%rdx), %eax
	cmpl	-128(%rbp), %eax
	je	.L854
	movl	-128(%rbp), %ebx
	leal	-2(%rdx), %eax
	cmpl	$10, %ebx
	setg	%dil
	cmpl	%ebx, %eax
	jne	.L739
	testb	%dil, %dil
	jne	.L716
.L739:
	leal	2(%rdx), %eax
	cmpl	%eax, -128(%rbp)
	jne	.L740
	testb	%dil, %dil
	jne	.L717
.L740:
	leal	-3(%rdx), %eax
	cmpl	-128(%rbp), %eax
	jne	.L741
	testb	%dil, %dil
	jne	.L718
.L741:
	leal	3(%rdx), %eax
	cmpl	%eax, -128(%rbp)
	jne	.L742
	testb	%dil, %dil
	jne	.L719
.L742:
	leal	-1(%rsi), %eax
	cmpl	%eax, -128(%rbp)
	jne	.L743
	testb	%dil, %dil
	jne	.L720
.L743:
	leal	1(%rsi), %eax
	cmpl	%eax, -128(%rbp)
	jne	.L744
	testb	%dil, %dil
	jne	.L721
.L744:
	movl	-128(%rbp), %ebx
	leal	-2(%rsi), %eax
	cmpl	$11, %ebx
	setg	%dil
	cmpl	%eax, %ebx
	jne	.L745
	testb	%dil, %dil
	jne	.L722
.L745:
	leal	2(%rsi), %eax
	cmpl	%eax, -128(%rbp)
	jne	.L746
	testb	%dil, %dil
	jne	.L723
.L746:
	leal	-3(%rsi), %eax
	cmpl	%eax, -128(%rbp)
	jne	.L747
	testb	%dil, %dil
	jne	.L724
.L747:
	leal	3(%rsi), %eax
	cmpl	%eax, -128(%rbp)
	jne	.L659
	testb	%dil, %dil
	jne	.L855
.L659:
	movl	-128(%rbp), %eax
	addl	$15, %eax
	cmpl	$1, %ecx
	jle	.L672
.L696:
	movl	%esi, -56(%rbp)
	movd	-128(%rbp), %xmm1
	cmpl	$15, %eax
	movd	-56(%rbp), %xmm2
	movl	%r8d, -56(%rbp)
	movd	-56(%rbp), %xmm4
	movl	%edx, -56(%rbp)
	movq	40(%rbp), %rbx
	punpckldq	%xmm4, %xmm2
	movd	-56(%rbp), %xmm4
	punpckldq	%xmm4, %xmm1
	punpcklqdq	%xmm2, %xmm1
	movups	%xmm1, (%rbx)
	jg	.L673
.L672:
	testw	%ax, %ax
	movl	%eax, %r12d
	sete	%r10b
.L656:
	xorl	%r13d, %r13d
	cmpl	$5, -124(%rbp)
	jg	.L675
.L846:
	movl	-124(%rbp), %edx
	movl	%edx, %r9d
	andl	$7, %r9d
	sall	$3, %r9d
	cmpl	$9, -92(%rbp)
	jg	.L679
.L849:
	movl	-92(%rbp), %eax
	andl	$1, %r10d
	leal	-2(%rax), %r8d
	movl	%r8d, %r11d
	andl	$7, %r11d
	jmp	.L680
.L709:
	xorl	%edi, %edi
.L641:
	xorq	%r8, %rsi
	xorl	%eax, %eax
	rep bsfq	%rsi, %rax
	sarl	$3, %eax
	addl	%eax, %edi
	jmp	.L643
.L688:
	movq	-216(%rbp), %rbx
	addq	$9, %rdx
	leaq	-3(%rbx), %rcx
	cmpq	%rcx, %rdx
	cmova	%rcx, %rdx
	movslq	%edx, %rdi
	cmpq	%rdi, %rax
	jnb	.L730
	movl	-176(%rbp), %r8d
	movl	-132(%rbp), %r10d
	movq	%rax, %rdx
	movq	-72(%rbp), %r11
	movq	32(%rbp), %r9
	.p2align 4,,10
	.p2align 3
.L690:
	imull	$506832829, (%r11,%rdx), %eax
	addl	$2, %r8d
	shrl	$18, %eax
	leaq	(%r9,%rax,2), %rsi
	salq	$4, %rax
	movzwl	(%rsi), %ecx
	movq	%rcx, %rbx
	addl	$1, %ecx
	andl	$15, %ebx
	leaq	8192(%rbx,%rax), %rax
	leal	(%r10,%rdx), %ebx
	addq	$2, %rdx
	cmpq	%rdi, %rdx
	movl	%ebx, (%r9,%rax,4)
	movw	%cx, (%rsi)
	jb	.L690
	jmp	.L834
.L844:
	addq	%r9, %rcx
	cmpq	$0, -144(%rbp)
	movq	%rcx, -64(%rbp)
	je	.L856
	movq	%rcx, %r8
	movq	-120(%rbp), %rcx
	movq	(%r8), %r9
	movq	(%rcx), %rdi
	cmpq	%r9, %rdi
	jne	.L705
	movq	-144(%rbp), %rdi
	movq	%rsi, -192(%rbp)
	addq	$8, %r8
	movl	%edx, -200(%rbp)
	movl	%ebx, -224(%rbp)
	movq	%rcx, %rsi
	movq	%rdi, %r9
	movq	%r9, %rdx
	jmp	.L611
	.p2align 4,,10
	.p2align 3
.L609:
	addq	$8, %r8
	movq	(%rcx), %rdi
	movq	-8(%r8), %r9
	cmpq	%r9, %rdi
	jne	.L823
.L611:
	addq	$8, %rcx
	movl	%ecx, %ebx
	subl	%esi, %ebx
	subq	$1, %rdx
	jne	.L609
	movl	%ebx, %r8d
	movq	-192(%rbp), %rsi
	movl	-200(%rbp), %edx
	movl	-224(%rbp), %ebx
.L607:
	movl	-184(%rbp), %edi
	testl	%edi, %edi
	je	.L610
	movslq	%r8d, %r9
	addq	-64(%rbp), %r9
	movzbl	(%rcx), %edi
	cmpb	%dil, (%r9)
	jne	.L610
	movq	%rsi, -64(%rbp)
	xorl	%edi, %edi
	movl	%r8d, %esi
	jmp	.L616
	.p2align 4,,10
	.p2align 3
.L615:
	movzbl	1(%r9,%rdi), %r8d
	addq	$1, %rdi
	cmpb	(%rcx,%rdi), %r8b
	jne	.L824
.L616:
	addl	$1, %esi
	cmpq	%r14, %rdi
	jne	.L615
.L824:
	movl	%esi, %r8d
	movq	-64(%rbp), %rsi
.L610:
	cmpl	$3, %r8d
	jle	.L605
	pxor	%xmm3, %xmm3
	movq	_ZZN6brotli39BackwardReferenceScoreUsingLastDistanceEdiiE25kDistanceShortCodeBitCost@GOTPCREL(%rip), %rcx
	cvtsi2sd	%r8d, %xmm3
	mulsd	.LC1(%rip), %xmm3
	subsd	(%rcx,%rax,2), %xmm3
	ucomisd	%xmm9, %xmm3
	jbe	.L605
	movapd	%xmm3, %xmm2
	movl	%edx, -168(%rbp)
	movl	%r8d, %ebx
	movl	%r8d, -172(%rbp)
	movapd	%xmm3, %xmm9
	movb	$1, -136(%rbp)
	jmp	.L605
.L850:
	movl	-92(%rbp), %eax
	subl	$6, %eax
	bsrl	%eax, %ecx
	subl	$1, %ecx
	sarl	%cl, %eax
	leal	4(%rax,%rcx,2), %r8d
.L833:
	movl	%r8d, %r11d
	andl	$7, %r11d
	cmpl	$15, %r8d
	setle	%al
	andl	%eax, %r10d
	jmp	.L680
.L847:
	movl	-124(%rbp), %eax
	subl	$2, %eax
	bsrl	%eax, %ecx
	subl	$1, %ecx
	sarl	%cl, %eax
	leal	2(%rax,%rcx,2), %edx
	movl	%edx, %r9d
	andl	$7, %r9d
	sall	$3, %r9d
	cmpl	$7, %edx
	setle	%al
	andl	%eax, %r10d
	jmp	.L676
.L702:
	xorl	%edi, %edi
.L592:
	xorq	%r9, %rsi
	xorl	%eax, %eax
	rep bsfq	%rsi, %rax
	sarl	$3, %eax
	addl	%eax, %edi
	jmp	.L594
.L848:
	movl	-124(%rbp), %eax
	xorl	%r10d, %r10d
	leal	-66(%rax), %edx
	bsrl	%edx, %edx
	addl	$10, %edx
	movl	%edx, %r9d
	andl	$7, %r9d
	sall	$3, %r9d
	jmp	.L676
.L842:
	addq	%r9, %rcx
	cmpq	$0, -104(%rbp)
	movq	%rcx, -64(%rbp)
	je	.L857
	movq	%rcx, %r8
	movq	-88(%rbp), %rcx
	movq	(%r8), %r9
	movq	(%rcx), %rdi
	cmpq	%r9, %rdi
	jne	.L698
	movq	-104(%rbp), %rdi
	movq	%rsi, -152(%rbp)
	leaq	8(%r8), %r8
	movl	%edx, -168(%rbp)
	movl	%r14d, -124(%rbp)
	movq	%rcx, %rsi
	movq	%rdi, %r9
	movq	%r9, %rdx
	jmp	.L562
	.p2align 4,,10
	.p2align 3
.L560:
	addq	$8, %r8
	movq	(%rcx), %rdi
	movq	-8(%r8), %r9
	cmpq	%r9, %rdi
	jne	.L815
.L562:
	addq	$8, %rcx
	movl	%ecx, %r14d
	subl	%esi, %r14d
	subq	$1, %rdx
	jne	.L560
	movl	%r14d, %r8d
	movq	-152(%rbp), %rsi
	movl	-124(%rbp), %r14d
	movl	-168(%rbp), %edx
.L558:
	movl	-136(%rbp), %r9d
	testl	%r9d, %r9d
	je	.L561
	movslq	%r8d, %r9
	addq	-64(%rbp), %r9
	movzbl	(%rcx), %edi
	cmpb	%dil, (%r9)
	jne	.L561
	xorl	%edi, %edi
	movl	%r14d, -64(%rbp)
	jmp	.L567
	.p2align 4,,10
	.p2align 3
.L566:
	movzbl	1(%r9,%rdi), %r14d
	addq	$1, %rdi
	cmpb	(%rcx,%rdi), %r14b
	jne	.L816
.L567:
	addl	$1, %r8d
	cmpq	%r13, %rdi
	jne	.L566
.L816:
	movl	-64(%rbp), %r14d
.L561:
	cmpl	$3, %r8d
	jle	.L556
	pxor	%xmm2, %xmm2
	movq	_ZZN6brotli39BackwardReferenceScoreUsingLastDistanceEdiiE25kDistanceShortCodeBitCost@GOTPCREL(%rip), %rcx
	cvtsi2sd	%r8d, %xmm2
	mulsd	.LC1(%rip), %xmm2
	subsd	(%rcx,%rax,2), %xmm2
	ucomisd	%xmm3, %xmm2
	jbe	.L556
	movapd	%xmm2, %xmm1
	movl	%edx, -128(%rbp)
	movl	%r8d, %ebx
	movl	%r8d, -92(%rbp)
	movapd	%xmm2, %xmm3
	movb	$1, -120(%rbp)
	jmp	.L556
.L712:
	movl	$1, %r10d
	xorl	%r12d, %r12d
	jmp	.L656
.L851:
	movl	-92(%rbp), %eax
	leal	-70(%rax), %r8d
	bsrl	%r8d, %r8d
	addl	$12, %r8d
	jmp	.L833
.L823:
	movl	%ebx, %r8d
	movq	-192(%rbp), %rsi
	movl	-200(%rbp), %edx
	movl	-224(%rbp), %ebx
.L608:
	xorq	%rdi, %r9
	xorl	%ecx, %ecx
	movl	%r8d, %edi
	rep bsfq	%r9, %rcx
	sarl	$3, %ecx
	addl	%ecx, %edi
	movl	%edi, %r8d
	jmp	.L610
.L657:
	movl	8(%rbx), %r8d
	movl	$1, %eax
	movl	$2, %ecx
	jmp	.L696
.L713:
	movl	$2, %eax
	movl	$3, %ecx
	jmp	.L696
.L815:
	movl	%r14d, %r8d
	movq	-152(%rbp), %rsi
	movl	-124(%rbp), %r14d
	movl	-168(%rbp), %edx
.L559:
	xorq	%r9, %rdi
	movq	%rdi, %rcx
	rep bsfq	%rdi, %rcx
	movl	%r8d, %edi
	sarl	$3, %ecx
	addl	%ecx, %edi
	movl	%edi, %r8d
	jmp	.L561
.L714:
	movl	$3, %eax
	movl	$4, %ecx
	jmp	.L696
.L841:
	movl	-216(%rbp), %ebx
	xorl	%edx, %edx
	movl	%ebx, -228(%rbp)
	jmp	.L555
.L854:
	movl	$5, %eax
	movl	$6, %ecx
	jmp	.L696
.L853:
	movl	$4, %eax
	movl	$5, %ecx
	jmp	.L696
.L705:
	xorl	%r8d, %r8d
	jmp	.L608
.L856:
	movq	-120(%rbp), %rcx
	xorl	%r8d, %r8d
	jmp	.L607
.L716:
	movl	$6, %eax
	movl	$7, %ecx
	jmp	.L696
.L717:
	movl	$7, %eax
	movl	$8, %ecx
	jmp	.L696
.L718:
	movl	$8, %eax
	movl	$9, %ecx
	jmp	.L696
.L719:
	movl	$9, %eax
	movl	$10, %ecx
	jmp	.L696
.L720:
	movl	$10, %eax
	movl	$11, %ecx
	jmp	.L696
	.p2align 4,,10
	.p2align 3
.L698:
	xorl	%r8d, %r8d
	jmp	.L559
.L857:
	movq	-88(%rbp), %rcx
	xorl	%r8d, %r8d
	jmp	.L558
.L855:
	movl	$15, %eax
	movl	$16, %ecx
	jmp	.L696
.L721:
	movl	$11, %eax
	movl	$12, %ecx
	jmp	.L696
.L722:
	movl	$12, %eax
	movl	$13, %ecx
	jmp	.L696
.L723:
	movl	$13, %eax
	movl	$14, %ecx
	jmp	.L696
.L724:
	movl	$14, %eax
	movl	$15, %ecx
	jmp	.L696
	.cfi_endproc
.LFE6248:
	.size	_ZN6brotli24CreateBackwardReferencesINS_16HashLongestMatchILi14ELi4ELi4ELi4ELb0ELb0EEELb0ELb0EEEvmmPKhmPKfmmdiPT_PiS9_PNS_7CommandES9_, .-_ZN6brotli24CreateBackwardReferencesINS_16HashLongestMatchILi14ELi4ELi4ELi4ELb0ELb0EEELb0ELb0EEEvmmPKhmPKfmmdiPT_PiS9_PNS_7CommandES9_
	.section	.text.unlikely._ZN6brotli24CreateBackwardReferencesINS_16HashLongestMatchILi14ELi4ELi4ELi4ELb0ELb0EEELb0ELb0EEEvmmPKhmPKfmmdiPT_PiS9_PNS_7CommandES9_,"axG",@progbits,_ZN6brotli24CreateBackwardReferencesINS_16HashLongestMatchILi14ELi4ELi4ELi4ELb0ELb0EEELb0ELb0EEEvmmPKhmPKfmmdiPT_PiS9_PNS_7CommandES9_,comdat
.LCOLDE7:
	.section	.text._ZN6brotli24CreateBackwardReferencesINS_16HashLongestMatchILi14ELi4ELi4ELi4ELb0ELb0EEELb0ELb0EEEvmmPKhmPKfmmdiPT_PiS9_PNS_7CommandES9_,"axG",@progbits,_ZN6brotli24CreateBackwardReferencesINS_16HashLongestMatchILi14ELi4ELi4ELi4ELb0ELb0EEELb0ELb0EEEvmmPKhmPKfmmdiPT_PiS9_PNS_7CommandES9_,comdat
.LHOTE7:
	.section	.text.unlikely._ZN6brotli24CreateBackwardReferencesINS_16HashLongestMatchILi14ELi5ELi4ELi4ELb0ELb0EEELb0ELb0EEEvmmPKhmPKfmmdiPT_PiS9_PNS_7CommandES9_,"axG",@progbits,_ZN6brotli24CreateBackwardReferencesINS_16HashLongestMatchILi14ELi5ELi4ELi4ELb0ELb0EEELb0ELb0EEEvmmPKhmPKfmmdiPT_PiS9_PNS_7CommandES9_,comdat
.LCOLDB8:
	.section	.text._ZN6brotli24CreateBackwardReferencesINS_16HashLongestMatchILi14ELi5ELi4ELi4ELb0ELb0EEELb0ELb0EEEvmmPKhmPKfmmdiPT_PiS9_PNS_7CommandES9_,"axG",@progbits,_ZN6brotli24CreateBackwardReferencesINS_16HashLongestMatchILi14ELi5ELi4ELi4ELb0ELb0EEELb0ELb0EEEvmmPKhmPKfmmdiPT_PiS9_PNS_7CommandES9_,comdat
.LHOTB8:
	.p2align 4,,15
	.weak	_ZN6brotli24CreateBackwardReferencesINS_16HashLongestMatchILi14ELi5ELi4ELi4ELb0ELb0EEELb0ELb0EEEvmmPKhmPKfmmdiPT_PiS9_PNS_7CommandES9_
	.type	_ZN6brotli24CreateBackwardReferencesINS_16HashLongestMatchILi14ELi5ELi4ELi4ELb0ELb0EEELb0ELb0EEEvmmPKhmPKfmmdiPT_PiS9_PNS_7CommandES9_, @function
_ZN6brotli24CreateBackwardReferencesINS_16HashLongestMatchILi14ELi5ELi4ELi4ELb0ELb0EEELb0ELb0EEEvmmPKhmPKfmmdiPT_PiS9_PNS_7CommandES9_:
.LFB6254:
	.cfi_startproc
	pushq	%rbp
	.cfi_def_cfa_offset 16
	.cfi_offset 6, -16
	movq	%rsp, %rbp
	.cfi_def_cfa_register 6
	pushq	%r15
	pushq	%r14
	pushq	%r13
	pushq	%r12
	.cfi_offset 15, -24
	.cfi_offset 14, -32
	.cfi_offset 13, -40
	.cfi_offset 12, -48
	movq	%rcx, %r15
	pushq	%rbx
	subq	$96, %rsp
	cmpq	$2, %rdi
	.cfi_offset 3, -56
	movq	%rdx, -72(%rbp)
	movq	32(%rbp), %r14
	movl	%esi, %edx
	jbe	.L861
	cmpq	$2, %rsi
	jbe	.L861
	movq	-72(%rbp), %rbx
	leaq	-3(%rsi), %rax
	andq	%rcx, %rax
	imull	$506832829, (%rbx,%rax), %eax
	shrl	$18, %eax
	leaq	(%r14,%rax,2), %r8
	salq	$5, %rax
	movzwl	(%r8), %ecx
	movq	%rcx, %r9
	addl	$1, %ecx
	andl	$31, %r9d
	leaq	8192(%r9,%rax), %rax
	leal	-3(%rsi), %r9d
	movl	%r9d, (%r14,%rax,4)
	leaq	-2(%rsi), %rax
	movw	%cx, (%r8)
	andq	%r15, %rax
	imull	$506832829, (%rbx,%rax), %eax
	shrl	$18, %eax
	leaq	(%r14,%rax,2), %r8
	salq	$5, %rax
	movzwl	(%r8), %ecx
	movq	%rcx, %r9
	addl	$1, %ecx
	andl	$31, %r9d
	leaq	8192(%r9,%rax), %rax
	leal	-2(%rsi), %r9d
	movl	%r9d, (%r14,%rax,4)
	leaq	-1(%rsi), %rax
	movw	%cx, (%r8)
	andq	%r15, %rax
	imull	$506832829, (%rbx,%rax), %eax
	shrl	$18, %eax
	leaq	(%r14,%rax,2), %r8
	salq	$5, %rax
	movzwl	(%r8), %ecx
	movq	%rcx, %r9
	addl	$1, %ecx
	andl	$31, %r9d
	leaq	8192(%r9,%rax), %rax
	leal	-1(%rsi), %r9d
	movl	%r9d, (%r14,%rax,4)
	movw	%cx, (%r8)
.L861:
	andq	%r15, %rsi
	movl	$256, %ecx
	movq	48(%rbp), %rax
	subl	%esi, %edx
	addq	%rsi, %rdi
	cmpl	$9, 24(%rbp)
	movl	%edx, -132(%rbp)
	movl	$2048, %edx
	movq	%rsi, -112(%rbp)
	movl	(%rax), %eax
	movq	%rdi, -216(%rbp)
	cmovl	%ecx, %edx
	movw	$64, %cx
	movl	%edx, -244(%rbp)
	movl	$512, %edx
	movl	%eax, -176(%rbp)
	cmovl	%ecx, %edx
	movl	%esi, %eax
	leal	(%rdx,%rsi), %ebx
	movl	%edx, -232(%rbp)
	leaq	3(%rsi), %rdx
	cmpq	%rdx, %rdi
	movl	%ebx, -144(%rbp)
	jbe	.L1150
	movl	-216(%rbp), %eax
	movsd	.LC1(%rip), %xmm6
	movsd	.LC0(%rip), %xmm5
	movq	%r14, 32(%rbp)
	movsd	.LC3(%rip), %xmm7
	movl	%eax, -228(%rbp)
	movslq	-132(%rbp), %rax
	movq	%rax, -160(%rbp)
	movq	56(%rbp), %rax
	movq	%rax, -240(%rbp)
	.p2align 4,,10
	.p2align 3
.L1000:
	movq	-112(%rbp), %rbx
	movl	-228(%rbp), %eax
	movq	-72(%rbp), %rdi
	movq	40(%rbp), %r11
	movapd	%xmm0, %xmm1
	movapd	%xmm0, %xmm3
	movq	%rbx, %r14
	addq	-160(%rbp), %r14
	subl	%ebx, %eax
	cmpq	16(%rbp), %r14
	movl	%eax, -96(%rbp)
	cmova	16(%rbp), %r14
	movb	$0, -120(%rbp)
	movl	$0, -92(%rbp)
	movl	$0, -128(%rbp)
	movq	%r14, %r12
	movl	%r14d, -80(%rbp)
	movl	-132(%rbp), %r14d
	leal	(%r14,%rbx), %esi
	movq	%rsi, %rbx
	movq	%rsi, %r14
	andq	%r15, %rbx
	addq	%rbx, %rdi
	movq	%rbx, -56(%rbp)
	movl	%eax, %ebx
	shrq	$3, %rax
	movq	%rdi, -88(%rbp)
	movq	%rax, -104(%rbp)
	movl	%ebx, %eax
	xorl	%ebx, %ebx
	andl	$7, %eax
	movl	%eax, %r10d
	movl	%eax, -136(%rbp)
	xorl	%eax, %eax
	leaq	-1(%r10), %r13
.L878:
	leaq	_ZN6brotliL19kDistanceCacheIndexE(%rip), %rdi
	movslq	(%rdi,%rax), %rcx
	leaq	_ZN6brotliL20kDistanceCacheOffsetE(%rip), %rdi
	movl	(%rdi,%rax), %edx
	addl	(%r11,%rcx,4), %edx
	movl	%r14d, %ecx
	subl	%edx, %ecx
	cmpq	%rcx, %rsi
	jbe	.L865
	cmpl	%edx, -80(%rbp)
	jb	.L865
	movq	-56(%rbp), %r8
	movslq	%ebx, %rdi
	addq	%rdi, %r8
	cmpq	%r8, %r15
	jb	.L865
	andq	%r15, %rcx
	addq	%rcx, %rdi
	cmpq	%rdi, %r15
	jb	.L865
	movq	-72(%rbp), %r9
	movzbl	(%r9,%rdi), %edi
	cmpb	%dil, (%r9,%r8)
	je	.L1151
	.p2align 4,,10
	.p2align 3
.L865:
	addq	$4, %rax
	cmpq	$16, %rax
	jne	.L878
	movq	-88(%rbp), %rax
	movq	32(%rbp), %rdi
	imull	$506832829, (%rax), %r8d
	shrl	$18, %r8d
	movl	%r8d, %eax
	movl	%r8d, -124(%rbp)
	leaq	256(%rax), %r11
	movzwl	(%rdi,%rax,2), %eax
	salq	$7, %r11
	addq	32(%rbp), %r11
	cmpw	$32, %ax
	leal	-32(%rax), %r13d
	ja	.L879
	xorl	%r13d, %r13d
.L879:
	subl	$1, %eax
	cmpl	%r13d, %eax
	jl	.L880
	leaq	-1(%r10), %rsi
	movl	%r12d, %edi
	movq	%rdi, -64(%rbp)
	movq	%rsi, -152(%rbp)
	jmp	.L1090
	.p2align 4,,10
	.p2align 3
.L881:
	subl	$1, %eax
	cmpl	%r13d, %eax
	jl	.L880
.L1090:
	movl	%eax, %edx
	andl	$31, %edx
	movl	(%r11,%rdx,4), %edx
	testl	%edx, %edx
	js	.L881
	movl	%r14d, %edi
	subl	%edx, %edi
	movl	%edi, %ecx
	cmpq	-64(%rbp), %rcx
	ja	.L880
	movslq	%ebx, %rcx
	addq	-56(%rbp), %rcx
	cmpq	%rcx, %r15
	jb	.L881
	andl	%r15d, %edx
	leal	(%rdx,%rbx), %esi
	movslq	%esi, %rsi
	cmpq	%rsi, %r15
	jb	.L881
	movq	-72(%rbp), %r9
	movzbl	(%r9,%rsi), %esi
	cmpb	%sil, (%r9,%rcx)
	jne	.L881
	addq	%r9, %rdx
	xorl	%r10d, %r10d
	cmpq	$0, -104(%rbp)
	movq	-88(%rbp), %rcx
	je	.L883
	movq	(%rcx), %r12
	movq	(%rdx), %r9
	cmpq	%r9, %r12
	jne	.L1009
	leaq	8(%rdx), %r8
	movq	%rdx, -168(%rbp)
	movq	-104(%rbp), %rsi
	movq	%rcx, %rdx
	jmp	.L887
	.p2align 4,,10
	.p2align 3
.L885:
	addq	$8, %r8
	movq	(%rcx), %r12
	movq	-8(%r8), %r9
	cmpq	%r9, %r12
	jne	.L884
.L887:
	addq	$8, %rcx
	movl	%ecx, %r10d
	subl	%edx, %r10d
	subq	$1, %rsi
	jne	.L885
	movq	-168(%rbp), %rdx
.L883:
	movl	-136(%rbp), %r8d
	testl	%r8d, %r8d
	je	.L886
	movslq	%r10d, %rsi
	addq	%rsi, %rdx
	movzbl	(%rcx), %esi
	cmpb	%sil, (%rdx)
	jne	.L886
	xorl	%esi, %esi
	movq	-152(%rbp), %r9
	jmp	.L892
	.p2align 4,,10
	.p2align 3
.L891:
	movzbl	1(%rdx,%rsi), %r8d
	addq	$1, %rsi
	cmpb	(%rcx,%rsi), %r8b
	jne	.L886
.L892:
	addl	$1, %r10d
	cmpq	%r9, %rsi
	jne	.L891
.L886:
	cmpl	$3, %r10d
	jle	.L881
	pxor	%xmm2, %xmm2
	testl	%edi, %edi
	movsd	.LC0(%rip), %xmm4
	cvtsi2sd	%r10d, %xmm2
	mulsd	.LC1(%rip), %xmm2
	je	.L893
	pxor	%xmm4, %xmm4
	bsrl	%edi, %edx
	cvtsi2sd	%edx, %xmm4
	mulsd	.LC3(%rip), %xmm4
.L893:
	subsd	%xmm4, %xmm2
	ucomisd	%xmm3, %xmm2
	jbe	.L881
	subl	$1, %eax
	movl	%edi, -128(%rbp)
	movl	%r10d, %ebx
	cmpl	%r13d, %eax
	movapd	%xmm2, %xmm1
	movl	%r10d, -92(%rbp)
	movapd	%xmm2, %xmm3
	movb	$1, -120(%rbp)
	jge	.L1090
	.p2align 4,,10
	.p2align 3
.L880:
	cmpb	$0, -120(%rbp)
	jne	.L896
	movq	32(%rbp), %rax
	movq	2129920(%rax), %r12
	movq	2129928(%rax), %rbx
	movq	%r12, %rax
	shrq	$7, %rax
	cmpq	%rax, %rbx
	jb	.L897
	movl	-124(%rbp), %r8d
	leaq	_ZN6brotliL21kStaticDictionaryHashE(%rip), %r13
	addq	$1, %r12
	addl	%r8d, %r8d
	leal	2(%r8), %eax
	movl	%eax, -56(%rbp)
	movl	-80(%rbp), %eax
	movq	%rbx, -80(%rbp)
	addl	$1, %eax
	movl	%eax, -64(%rbp)
.L912:
	movq	32(%rbp), %rax
	movq	%r12, 2129920(%rax)
	movl	%r8d, %eax
	movzwl	0(%r13,%rax,2), %r11d
	testw	%r11w, %r11w
	je	.L898
	movl	%r11d, %eax
	leaq	_ZL32kBrotliDictionaryOffsetsByLength(%rip), %rdx
	andl	$31, %eax
	movzwl	%ax, %ecx
	movq	%rcx, %rbx
	cmpl	%ebx, -96(%rbp)
	movl	(%rdx,%rcx,4), %ecx
	jb	.L898
	movzwl	%r11w, %edx
	leaq	_ZL17kBrotliDictionary(%rip), %rdi
	sarl	$5, %edx
	movl	%edx, -92(%rbp)
	imull	%ebx, %edx
	leal	(%rcx,%rdx), %r10d
	movzwl	%ax, %edx
	shrq	$3, %rdx
	movslq	%r10d, %r10
	addq	%rdi, %r10
	xorl	%edi, %edi
	testq	%rdx, %rdx
	movq	%r10, %rax
	je	.L900
	movq	-88(%rbp), %rax
	movq	(%r10), %r9
	movq	(%rax), %rsi
	cmpq	%rsi, %r9
	jne	.L1011
	leaq	8(%rax), %rcx
	movq	%r10, %rax
	jmp	.L904
	.p2align 4,,10
	.p2align 3
.L902:
	addq	$8, %rcx
	movq	(%rax), %r9
	movq	-8(%rcx), %rsi
	cmpq	%rsi, %r9
	jne	.L901
.L904:
	addq	$8, %rax
	movl	%eax, %edi
	subl	%r10d, %edi
	subq	$1, %rdx
	jne	.L902
.L900:
	andl	$7, %r11d
	testw	%r11w, %r11w
	movzwl	%r11w, %r9d
	je	.L903
	movslq	%edi, %rsi
	addq	-88(%rbp), %rsi
	movzbl	(%rax), %ecx
	cmpb	%cl, (%rsi)
	jne	.L903
	subq	$1, %r9
	xorl	%edx, %edx
	jmp	.L909
	.p2align 4,,10
	.p2align 3
.L908:
	movzbl	1(%rsi,%rdx), %ecx
	addq	$1, %rdx
	cmpb	(%rax,%rdx), %cl
	jne	.L903
.L909:
	addl	$1, %edi
	cmpq	%r9, %rdx
	jne	.L908
.L903:
	cmpl	%edi, %ebx
	je	.L1152
	.p2align 4,,10
	.p2align 3
.L898:
	addl	$1, %r8d
	addq	$1, %r12
	cmpl	-56(%rbp), %r8d
	jne	.L912
.L897:
	movq	-72(%rbp), %rdi
	movq	-112(%rbp), %rbx
	addl	$1, -176(%rbp)
	imull	$506832829, (%rdi,%rbx), %eax
	movq	32(%rbp), %rdi
	shrl	$18, %eax
	leaq	(%rdi,%rax,2), %rcx
	salq	$5, %rax
	movzwl	(%rcx), %edx
	movq	%rdx, %rsi
	addl	$1, %edx
	andl	$31, %esi
	leaq	8192(%rsi,%rax), %rax
	movl	%r14d, (%rdi,%rax,4)
	movw	%dx, (%rcx)
	movq	%rbx, %rax
	movslq	-144(%rbp), %rdx
	addq	$1, %rax
	cmpq	%rdx, %rax
	jbe	.L1039
	movl	-144(%rbp), %edx
	addl	-244(%rbp), %edx
	movslq	%edx, %rdx
	cmpq	%rdx, %rax
	movq	-112(%rbp), %rdx
	jbe	.L997
	movq	-216(%rbp), %rbx
	addq	$17, %rdx
	leaq	-4(%rbx), %rcx
	cmpq	%rcx, %rdx
	cmova	%rcx, %rdx
	movslq	%edx, %rdi
	cmpq	%rdi, %rax
	jnb	.L1039
	movl	-176(%rbp), %r8d
	movl	-132(%rbp), %r10d
	movq	%rax, %rdx
	movq	-72(%rbp), %r11
	movq	32(%rbp), %r9
	.p2align 4,,10
	.p2align 3
.L998:
	imull	$506832829, (%r11,%rdx), %eax
	addl	$4, %r8d
	shrl	$18, %eax
	leaq	(%r9,%rax,2), %rsi
	salq	$5, %rax
	movzwl	(%rsi), %ecx
	movq	%rcx, %rbx
	addl	$1, %ecx
	andl	$31, %ebx
	leaq	8192(%rbx,%rax), %rax
	leal	(%r10,%rdx), %ebx
	addq	$4, %rdx
	cmpq	%rdi, %rdx
	movl	%ebx, (%r9,%rax,4)
	movw	%cx, (%rsi)
	jb	.L998
.L1143:
	movl	%r8d, -176(%rbp)
	movq	%rdx, -112(%rbp)
	movq	%rdx, %rax
.L994:
	addq	$3, %rax
	cmpq	%rax, -216(%rbp)
	ja	.L1000
	movq	-240(%rbp), %rdx
	subq	56(%rbp), %rdx
	movl	-112(%rbp), %eax
	shrq	$5, %rdx
.L864:
	movl	-176(%rbp), %ebx
	subl	%eax, %ebx
	movl	-228(%rbp), %eax
	addl	%ebx, %eax
	movq	48(%rbp), %rbx
	movl	%eax, (%rbx)
	movq	64(%rbp), %rax
	addl	%edx, (%rax)
	addq	$96, %rsp
	popq	%rbx
	popq	%r12
	popq	%r13
	popq	%r14
	popq	%r15
	popq	%rbp
	.cfi_remember_state
	.cfi_def_cfa 7, 8
	ret
.L1152:
	.cfi_restore_state
	pxor	%xmm1, %xmm1
	movl	-92(%rbp), %edx
	addl	-64(%rbp), %edx
	movsd	.LC0(%rip), %xmm2
	cvtsi2sd	%ebx, %xmm1
	mulsd	.LC1(%rip), %xmm1
	je	.L910
	pxor	%xmm2, %xmm2
	bsrl	%edx, %eax
	cvtsi2sd	%eax, %xmm2
	mulsd	.LC3(%rip), %xmm2
.L910:
	subsd	%xmm2, %xmm1
	ucomisd	%xmm3, %xmm1
	jbe	.L898
	movl	%ebx, -92(%rbp)
	movq	-80(%rbp), %rbx
	movq	32(%rbp), %rax
	movl	%edx, -128(%rbp)
	leaq	1(%rbx), %r14
	movq	%r14, 2129928(%rax)
	.p2align 4,,10
	.p2align 3
.L896:
	movl	-96(%rbp), %eax
	movq	-112(%rbp), %rbx
	movq	-160(%rbp), %rdi
	movsd	.LC1(%rip), %xmm8
	movl	%eax, -104(%rbp)
	subl	$4, %eax
	movq	%rbx, -80(%rbp)
	movl	%eax, -208(%rbp)
	movl	-132(%rbp), %eax
	leaq	1(%rbx,%rdi), %rdi
	movq	%rdi, -152(%rbp)
	addl	$1, %eax
	movl	%eax, -204(%rbp)
.L962:
	movl	-176(%rbp), %eax
	subl	-112(%rbp), %eax
	movl	%ebx, -96(%rbp)
	subl	$1, -104(%rbp)
	movl	%eax, -180(%rbp)
	addl	%ebx, %eax
	xorl	%ebx, %ebx
	cmpl	$3, 24(%rbp)
	movl	%eax, -124(%rbp)
	jg	.L913
	movl	-92(%rbp), %eax
	leal	-1(%rax), %ebx
	movl	-104(%rbp), %eax
	cmpl	%eax, %ebx
	cmovg	%eax, %ebx
.L913:
	movq	-152(%rbp), %rdi
	movq	-72(%rbp), %r14
	cmpq	%rdi, 16(%rbp)
	movl	-204(%rbp), %r12d
	movq	32(%rbp), %r9
	movq	40(%rbp), %r11
	movq	%rdi, %r13
	movq	%r14, %rax
	cmovbe	16(%rbp), %r13
	subq	-160(%rbp), %rax
	movapd	%xmm0, %xmm2
	movapd	%xmm0, %xmm9
	movl	$0, -172(%rbp)
	movb	$0, -136(%rbp)
	movl	$0, -168(%rbp)
	movl	%r13d, -88(%rbp)
	imull	$506832829, -1(%rdi,%rax), %eax
	movq	32(%rbp), %rdi
	shrl	$18, %eax
	leaq	(%rdi,%rax,2), %rcx
	salq	$5, %rax
	movl	-96(%rbp), %edi
	movzwl	(%rcx), %edx
	addl	%edi, %r12d
	movq	%rdx, %rsi
	addl	$1, %edx
	andl	$31, %esi
	leaq	8192(%rsi,%rax), %rax
	movl	-132(%rbp), %esi
	addl	%edi, %esi
	movl	%esi, (%r9,%rax,4)
	movl	%r12d, %esi
	movw	%dx, (%rcx)
	movq	%rsi, %rax
	andq	%r15, %rax
	movq	%rax, %rdi
	movq	%rax, -56(%rbp)
	movq	%r14, %rax
	addq	%rdi, %rax
	movl	-104(%rbp), %edi
	movq	%rax, -120(%rbp)
	movl	%edi, %eax
	shrq	$3, %rax
	movq	%rax, -144(%rbp)
	movl	%edi, %eax
	andl	$7, %eax
	movl	%eax, %r10d
	movl	%eax, -184(%rbp)
	xorl	%eax, %eax
	leaq	-1(%r10), %r14
.L927:
	leaq	_ZN6brotliL19kDistanceCacheIndexE(%rip), %rdi
	movslq	(%rdi,%rax), %rcx
	leaq	_ZN6brotliL20kDistanceCacheOffsetE(%rip), %rdi
	movl	(%rdi,%rax), %edx
	addl	(%r11,%rcx,4), %edx
	movl	%r12d, %ecx
	subl	%edx, %ecx
	cmpq	%rcx, %rsi
	jbe	.L914
	cmpl	%edx, -88(%rbp)
	jb	.L914
	movq	-56(%rbp), %r8
	movslq	%ebx, %rdi
	addq	%rdi, %r8
	cmpq	%r8, %r15
	jb	.L914
	andq	%r15, %rcx
	addq	%rcx, %rdi
	cmpq	%rdi, %r15
	jb	.L914
	movq	-72(%rbp), %r9
	movzbl	(%r9,%rdi), %edi
	cmpb	%dil, (%r9,%r8)
	je	.L1153
	.p2align 4,,10
	.p2align 3
.L914:
	addq	$4, %rax
	cmpq	$16, %rax
	jne	.L927
	movq	-120(%rbp), %rax
	movq	32(%rbp), %rdi
	imull	$506832829, (%rax), %eax
	shrl	$18, %eax
	leaq	256(%rax), %r11
	movl	%eax, -192(%rbp)
	movzwl	(%rdi,%rax,2), %eax
	salq	$7, %r11
	addq	32(%rbp), %r11
	cmpw	$32, %ax
	leal	-32(%rax), %r14d
	ja	.L928
	xorl	%r14d, %r14d
.L928:
	subl	$1, %eax
	cmpl	%r14d, %eax
	jl	.L929
	movl	%r13d, %edi
	movq	%rdi, -64(%rbp)
	leaq	-1(%r10), %rdi
	movq	%rdi, -200(%rbp)
	jmp	.L1089
	.p2align 4,,10
	.p2align 3
.L930:
	subl	$1, %eax
	cmpl	%r14d, %eax
	jl	.L929
.L1089:
	movl	%eax, %edx
	andl	$31, %edx
	movl	(%r11,%rdx,4), %edx
	testl	%edx, %edx
	js	.L930
	movl	%r12d, %edi
	subl	%edx, %edi
	movl	%edi, %ecx
	cmpq	-64(%rbp), %rcx
	ja	.L929
	movslq	%ebx, %rcx
	addq	-56(%rbp), %rcx
	cmpq	%rcx, %r15
	jb	.L930
	andl	%r15d, %edx
	leal	(%rdx,%rbx), %esi
	movslq	%esi, %rsi
	cmpq	%rsi, %r15
	jb	.L930
	movq	-72(%rbp), %r9
	movzbl	(%r9,%rsi), %esi
	cmpb	%sil, (%r9,%rcx)
	jne	.L930
	addq	%r9, %rdx
	xorl	%r10d, %r10d
	cmpq	$0, -144(%rbp)
	movq	-120(%rbp), %rcx
	je	.L932
	movq	(%rcx), %r13
	movq	(%rdx), %r9
	cmpq	%r9, %r13
	jne	.L1016
	leaq	8(%rdx), %r8
	movq	%rdx, -224(%rbp)
	movq	-144(%rbp), %rsi
	movq	%rcx, %rdx
	jmp	.L936
	.p2align 4,,10
	.p2align 3
.L934:
	addq	$8, %r8
	movq	(%rcx), %r13
	movq	-8(%r8), %r9
	cmpq	%r9, %r13
	jne	.L933
.L936:
	addq	$8, %rcx
	movl	%ecx, %r10d
	subl	%edx, %r10d
	subq	$1, %rsi
	jne	.L934
	movq	-224(%rbp), %rdx
.L932:
	movl	-184(%rbp), %esi
	testl	%esi, %esi
	je	.L935
	movslq	%r10d, %rsi
	addq	%rsi, %rdx
	movzbl	(%rcx), %esi
	cmpb	%sil, (%rdx)
	jne	.L935
	xorl	%esi, %esi
	movq	-200(%rbp), %r9
	jmp	.L941
	.p2align 4,,10
	.p2align 3
.L940:
	movzbl	1(%rdx,%rsi), %r8d
	addq	$1, %rsi
	cmpb	(%rcx,%rsi), %r8b
	jne	.L935
.L941:
	addl	$1, %r10d
	cmpq	%r9, %rsi
	jne	.L940
.L935:
	cmpl	$3, %r10d
	jle	.L930
	pxor	%xmm3, %xmm3
	testl	%edi, %edi
	movapd	%xmm5, %xmm4
	cvtsi2sd	%r10d, %xmm3
	mulsd	%xmm6, %xmm3
	je	.L942
	pxor	%xmm4, %xmm4
	bsrl	%edi, %edx
	cvtsi2sd	%edx, %xmm4
	mulsd	%xmm7, %xmm4
.L942:
	subsd	%xmm4, %xmm3
	ucomisd	%xmm9, %xmm3
	jbe	.L930
	subl	$1, %eax
	movl	%edi, -168(%rbp)
	movl	%r10d, %ebx
	cmpl	%r14d, %eax
	movapd	%xmm3, %xmm2
	movl	%r10d, -172(%rbp)
	movapd	%xmm3, %xmm9
	movb	$1, -136(%rbp)
	jge	.L1089
	.p2align 4,,10
	.p2align 3
.L929:
	cmpb	$0, -136(%rbp)
	jne	.L945
	movq	32(%rbp), %rax
	movq	2129920(%rax), %r9
	movq	2129928(%rax), %r14
	movq	%r9, %rax
	shrq	$7, %rax
	cmpq	%rax, %r14
	jb	.L1003
	movl	-192(%rbp), %r11d
	movl	-88(%rbp), %eax
	leaq	_ZN6brotliL21kStaticDictionaryHashE(%rip), %r13
	addq	$1, %r9
	movq	%r14, -64(%rbp)
	addl	%r11d, %r11d
	addl	$1, %eax
	leal	2(%r11), %r12d
	movl	%eax, -56(%rbp)
.L961:
	movq	32(%rbp), %rax
	movq	%r9, 2129920(%rax)
	movl	%r11d, %eax
	movzwl	0(%r13,%rax,2), %ebx
	testw	%bx, %bx
	je	.L947
	movl	%ebx, %eax
	leaq	_ZL32kBrotliDictionaryOffsetsByLength(%rip), %rdx
	andl	$31, %eax
	movzwl	%ax, %ecx
	cmpl	%ecx, -104(%rbp)
	movq	%rcx, %r14
	movl	(%rdx,%rcx,4), %r10d
	jb	.L947
	movzwl	%bx, %edx
	leaq	_ZL17kBrotliDictionary(%rip), %rdi
	sarl	$5, %edx
	movl	%edx, -88(%rbp)
	imull	%ecx, %edx
	addl	%edx, %r10d
	movzwl	%ax, %edx
	movslq	%r10d, %r10
	shrq	$3, %rdx
	addq	%rdi, %r10
	xorl	%edi, %edi
	testq	%rdx, %rdx
	movq	%r10, %rax
	je	.L949
	movq	-120(%rbp), %rax
	movq	(%r10), %r8
	movq	(%rax), %rsi
	cmpq	%rsi, %r8
	jne	.L1018
	leaq	8(%rax), %rcx
	movq	%r10, %rax
	jmp	.L953
	.p2align 4,,10
	.p2align 3
.L951:
	addq	$8, %rcx
	movq	(%rax), %r8
	movq	-8(%rcx), %rsi
	cmpq	%rsi, %r8
	jne	.L950
.L953:
	addq	$8, %rax
	movl	%eax, %edi
	subl	%r10d, %edi
	subq	$1, %rdx
	jne	.L951
.L949:
	andl	$7, %ebx
	testw	%bx, %bx
	movzwl	%bx, %r8d
	je	.L952
	movslq	%edi, %rsi
	addq	-120(%rbp), %rsi
	movzbl	(%rax), %ebx
	cmpb	%bl, (%rsi)
	jne	.L952
	subq	$1, %r8
	xorl	%edx, %edx
	jmp	.L958
	.p2align 4,,10
	.p2align 3
.L957:
	movzbl	1(%rsi,%rdx), %ecx
	addq	$1, %rdx
	cmpb	(%rax,%rdx), %cl
	jne	.L952
.L958:
	addl	$1, %edi
	cmpq	%r8, %rdx
	jne	.L957
.L952:
	cmpl	%edi, %r14d
	je	.L1154
	.p2align 4,,10
	.p2align 3
.L947:
	addl	$1, %r11d
	addq	$1, %r9
	cmpl	%r12d, %r11d
	jne	.L961
.L1003:
	movl	-96(%rbp), %eax
	addl	-232(%rbp), %eax
	movl	-92(%rbp), %ebx
	movslq	-128(%rbp), %rdx
	leal	(%rax,%rbx,2), %eax
	leal	16(%rdx), %ecx
	movl	%eax, -144(%rbp)
	movq	-80(%rbp), %rax
	addq	-160(%rbp), %rax
	cmpq	16(%rbp), %rax
	cmova	16(%rbp), %rax
	cmpq	%rax, %rdx
	jbe	.L963
	movl	-128(%rbp), %eax
	addl	$15, %eax
	cmpl	$15, %eax
	jle	.L981
.L982:
	leal	-13(%rcx), %edx
	bsrl	%edx, %eax
	movl	%edx, %esi
	leal	-1(%rax), %ecx
	leal	10(%rax,%rax), %eax
	sarl	%cl, %esi
	movl	%esi, %edi
	sall	%cl, %edi
	sall	$24, %ecx
	subl	%edi, %edx
	orl	%ecx, %edx
	addw	%si, %ax
	sete	%r10b
	cmpl	$5, -124(%rbp)
	movl	%edx, %r13d
	movl	%eax, %r12d
	jle	.L1155
.L984:
	cmpl	$129, -124(%rbp)
	jle	.L1156
	cmpl	$2113, -124(%rbp)
	jle	.L1157
	xorl	%r10d, %r10d
	cmpl	$6209, -124(%rbp)
	movl	$40, %r9d
	movl	$21, %edx
	jle	.L985
	cmpl	$22594, -124(%rbp)
	setge	%dl
	movzbl	%dl, %r9d
	movzbl	%dl, %edx
	leal	48(,%r9,8), %r9d
	addl	$22, %edx
	.p2align 4,,10
	.p2align 3
.L985:
	cmpl	$9, -92(%rbp)
	jle	.L1158
.L988:
	cmpl	$133, -92(%rbp)
	jle	.L1159
	cmpl	$2117, -92(%rbp)
	jle	.L1160
	xorl	%r10d, %r10d
	movl	$7, %r11d
	movl	$23, %r8d
.L989:
	leaq	_ZN6brotliL8insextraE(%rip), %rax
	movslq	%edx, %rsi
	leaq	_ZN6brotliL9copyextraE(%rip), %rdi
	movl	-124(%rbp), %r14d
	orl	%r11d, %r9d
	movl	(%rax,%rsi,4), %ecx
	movslq	%r8d, %rax
	movslq	(%rdi,%rax,4), %rbx
	movslq	%ecx, %rdi
	addq	%rbx, %rdi
	leaq	_ZN6brotliL7insbaseE(%rip), %rbx
	subl	(%rbx,%rsi,4), %r14d
	leaq	_ZN6brotliL8copybaseE(%rip), %rbx
	movslq	%r14d, %rsi
	movl	-92(%rbp), %r14d
	subl	(%rbx,%rax,4), %r14d
	testb	%r10b, %r10b
	movslq	%r14d, %rax
	je	.L991
	movl	%r9d, %edx
	orl	$64, %edx
	cmpl	$8, %r8d
	cmovge	%edx, %r9d
.L992:
	movq	-240(%rbp), %rbx
	movl	-124(%rbp), %r14d
	salq	$48, %rdi
	salq	%cl, %rax
	orq	%rax, %rdi
	movl	%r14d, (%rbx)
	movl	-92(%rbp), %r14d
	orq	%rsi, %rdi
	leaq	32(%rbx), %rdx
	movw	%r9w, 8(%rbx)
	movw	%r12w, 10(%rbx)
	movq	%rdi, 16(%rbx)
	movl	%r13d, 24(%rbx)
	cmpl	$1, %r14d
	movl	%r14d, 4(%rbx)
	jle	.L996
	movl	-96(%rbp), %r10d
	addl	-132(%rbp), %r10d
	movq	-72(%rbp), %rdi
	addq	-80(%rbp), %rdi
	movq	32(%rbp), %r9
	leal	1(%r10), %esi
	addl	-92(%rbp), %r10d
	.p2align 4,,10
	.p2align 3
.L995:
	imull	$506832829, 1(%rdi), %eax
	addq	$1, %rdi
	shrl	$18, %eax
	leaq	(%r9,%rax,2), %r8
	salq	$5, %rax
	movzwl	(%r8), %ecx
	movq	%rcx, %r11
	addl	$1, %ecx
	andl	$31, %r11d
	leaq	8192(%r11,%rax), %rax
	movl	%esi, (%r9,%rax,4)
	addl	$1, %esi
	movw	%cx, (%r8)
	cmpl	%r10d, %esi
	jne	.L995
.L996:
	movslq	-92(%rbp), %rax
	movq	%rdx, -240(%rbp)
	addq	-80(%rbp), %rax
	movl	$0, -176(%rbp)
	movq	%rax, -112(%rbp)
	jmp	.L994
.L1154:
	pxor	%xmm2, %xmm2
	movl	-88(%rbp), %edx
	addl	-56(%rbp), %edx
	movsd	.LC0(%rip), %xmm3
	cvtsi2sd	%r14d, %xmm2
	mulsd	%xmm8, %xmm2
	je	.L959
	pxor	%xmm3, %xmm3
	bsrl	%edx, %eax
	cvtsi2sd	%eax, %xmm3
	mulsd	.LC3(%rip), %xmm3
.L959:
	subsd	%xmm3, %xmm2
	ucomisd	%xmm9, %xmm2
	jbe	.L947
	movl	%r14d, -172(%rbp)
	movq	-64(%rbp), %r14
	movq	32(%rbp), %rax
	movl	%edx, -168(%rbp)
	addq	$1, %r14
	movq	%r14, 2129928(%rax)
	.p2align 4,,10
	.p2align 3
.L945:
	addsd	.LC4(%rip), %xmm1
	ucomisd	%xmm1, %xmm2
	jb	.L1003
	addq	$1, -80(%rbp)
	movl	-180(%rbp), %ebx
	movq	-80(%rbp), %rax
	addq	$1, -152(%rbp)
	movl	-208(%rbp), %edi
	addl	%eax, %ebx
	cmpl	%edi, -104(%rbp)
	movl	%ebx, %eax
	je	.L1161
	movl	-168(%rbp), %eax
	movapd	%xmm2, %xmm1
	movq	-80(%rbp), %rbx
	movl	%eax, -128(%rbp)
	movl	-172(%rbp), %eax
	movl	%eax, -92(%rbp)
	jmp	.L962
.L1016:
	xorl	%r10d, %r10d
	.p2align 4,,10
	.p2align 3
.L933:
	xorq	%r13, %r9
	rep bsfq	%r9, %r9
	sarl	$3, %r9d
	addl	%r9d, %r10d
	jmp	.L935
	.p2align 4,,10
	.p2align 3
.L1161:
	movl	%eax, -124(%rbp)
	movl	-80(%rbp), %eax
	movl	-168(%rbp), %ebx
	movl	%eax, -96(%rbp)
	movl	-172(%rbp), %eax
	movl	%ebx, -128(%rbp)
	movl	%eax, -92(%rbp)
	jmp	.L1003
	.p2align 4,,10
	.p2align 3
.L991:
	sarl	$3, %edx
	sarl	$3, %r8d
	leal	(%rdx,%rdx,2), %edx
	addl	%edx, %r8d
	leaq	_ZZN6brotliL18CombineLengthCodesEiiiE5cells(%rip), %rdx
	movslq	%r8d, %r8
	movl	(%rdx,%r8,4), %edx
	sall	$6, %edx
	orl	%edx, %r9d
	jmp	.L992
	.p2align 4,,10
	.p2align 3
.L1039:
	movq	%rax, -112(%rbp)
	jmp	.L994
.L1009:
	xorl	%r10d, %r10d
	.p2align 4,,10
	.p2align 3
.L884:
	xorq	%r12, %r9
	xorl	%edx, %edx
	rep bsfq	%r9, %rdx
	sarl	$3, %edx
	addl	%edx, %r10d
	jmp	.L886
	.p2align 4,,10
	.p2align 3
.L963:
	movq	40(%rbp), %rax
	movl	(%rax), %edx
	movl	-128(%rbp), %eax
	cmpl	%eax, %edx
	je	.L1021
	movq	40(%rbp), %rbx
	movl	4(%rbx), %esi
	cmpl	%eax, %esi
	je	.L966
	movl	8(%rbx), %r8d
	cmpl	%eax, %r8d
	je	.L1022
	cmpl	%eax, 12(%rbx)
	je	.L1023
	cmpl	$5, %eax
	movl	%eax, %ebx
	jle	.L968
	cmpl	$1, 24(%rbp)
	jle	.L968
	leal	-1(%rdx), %eax
	cmpl	%ebx, %eax
	je	.L1162
	leal	1(%rdx), %eax
	cmpl	-128(%rbp), %eax
	je	.L1163
	movl	-128(%rbp), %ebx
	leal	-2(%rdx), %eax
	cmpl	$10, %ebx
	setg	%dil
	cmpl	%ebx, %eax
	jne	.L1048
	testb	%dil, %dil
	jne	.L1025
.L1048:
	leal	2(%rdx), %eax
	cmpl	%eax, -128(%rbp)
	jne	.L1049
	testb	%dil, %dil
	jne	.L1026
.L1049:
	leal	-3(%rdx), %eax
	cmpl	-128(%rbp), %eax
	jne	.L1050
	testb	%dil, %dil
	jne	.L1027
.L1050:
	leal	3(%rdx), %eax
	cmpl	%eax, -128(%rbp)
	jne	.L1051
	testb	%dil, %dil
	jne	.L1028
.L1051:
	leal	-1(%rsi), %eax
	cmpl	%eax, -128(%rbp)
	jne	.L1052
	testb	%dil, %dil
	jne	.L1029
.L1052:
	leal	1(%rsi), %eax
	cmpl	%eax, -128(%rbp)
	jne	.L1053
	testb	%dil, %dil
	jne	.L1030
.L1053:
	movl	-128(%rbp), %ebx
	leal	-2(%rsi), %eax
	cmpl	$11, %ebx
	setg	%dil
	cmpl	%eax, %ebx
	jne	.L1054
	testb	%dil, %dil
	jne	.L1031
.L1054:
	leal	2(%rsi), %eax
	cmpl	%eax, -128(%rbp)
	jne	.L1055
	testb	%dil, %dil
	jne	.L1032
.L1055:
	leal	-3(%rsi), %eax
	cmpl	%eax, -128(%rbp)
	jne	.L1056
	testb	%dil, %dil
	jne	.L1033
.L1056:
	leal	3(%rsi), %eax
	cmpl	%eax, -128(%rbp)
	jne	.L968
	testb	%dil, %dil
	jne	.L1164
.L968:
	movl	-128(%rbp), %eax
	addl	$15, %eax
	cmpl	$1, %ecx
	jle	.L981
.L1005:
	movl	%esi, -56(%rbp)
	movd	-128(%rbp), %xmm1
	cmpl	$15, %eax
	movd	-56(%rbp), %xmm2
	movl	%r8d, -56(%rbp)
	movd	-56(%rbp), %xmm4
	movl	%edx, -56(%rbp)
	movq	40(%rbp), %rbx
	punpckldq	%xmm4, %xmm2
	movd	-56(%rbp), %xmm4
	punpckldq	%xmm4, %xmm1
	punpcklqdq	%xmm2, %xmm1
	movups	%xmm1, (%rbx)
	jg	.L982
.L981:
	testw	%ax, %ax
	movl	%eax, %r12d
	sete	%r10b
.L965:
	xorl	%r13d, %r13d
	cmpl	$5, -124(%rbp)
	jg	.L984
.L1155:
	movl	-124(%rbp), %edx
	movl	%edx, %r9d
	andl	$7, %r9d
	sall	$3, %r9d
	cmpl	$9, -92(%rbp)
	jg	.L988
.L1158:
	movl	-92(%rbp), %eax
	andl	$1, %r10d
	leal	-2(%rax), %r8d
	movl	%r8d, %r11d
	andl	$7, %r11d
	jmp	.L989
.L1018:
	xorl	%edi, %edi
.L950:
	xorq	%r8, %rsi
	xorl	%eax, %eax
	rep bsfq	%rsi, %rax
	sarl	$3, %eax
	addl	%eax, %edi
	jmp	.L952
.L997:
	movq	-216(%rbp), %rbx
	addq	$9, %rdx
	leaq	-3(%rbx), %rcx
	cmpq	%rcx, %rdx
	cmova	%rcx, %rdx
	movslq	%edx, %rdi
	cmpq	%rdi, %rax
	jnb	.L1039
	movl	-176(%rbp), %r8d
	movl	-132(%rbp), %r10d
	movq	%rax, %rdx
	movq	-72(%rbp), %r11
	movq	32(%rbp), %r9
	.p2align 4,,10
	.p2align 3
.L999:
	imull	$506832829, (%r11,%rdx), %eax
	addl	$2, %r8d
	shrl	$18, %eax
	leaq	(%r9,%rax,2), %rsi
	salq	$5, %rax
	movzwl	(%rsi), %ecx
	movq	%rcx, %rbx
	addl	$1, %ecx
	andl	$31, %ebx
	leaq	8192(%rbx,%rax), %rax
	leal	(%r10,%rdx), %ebx
	addq	$2, %rdx
	cmpq	%rdi, %rdx
	movl	%ebx, (%r9,%rax,4)
	movw	%cx, (%rsi)
	jb	.L999
	jmp	.L1143
.L1153:
	addq	%r9, %rcx
	cmpq	$0, -144(%rbp)
	movq	%rcx, -64(%rbp)
	je	.L1165
	movq	%rcx, %r8
	movq	-120(%rbp), %rcx
	movq	(%r8), %r9
	movq	(%rcx), %rdi
	cmpq	%r9, %rdi
	jne	.L1014
	movq	-144(%rbp), %rdi
	movq	%rsi, -192(%rbp)
	addq	$8, %r8
	movl	%edx, -200(%rbp)
	movl	%ebx, -224(%rbp)
	movq	%rcx, %rsi
	movq	%rdi, %r9
	movq	%r9, %rdx
	jmp	.L920
	.p2align 4,,10
	.p2align 3
.L918:
	addq	$8, %r8
	movq	(%rcx), %rdi
	movq	-8(%r8), %r9
	cmpq	%r9, %rdi
	jne	.L1132
.L920:
	addq	$8, %rcx
	movl	%ecx, %ebx
	subl	%esi, %ebx
	subq	$1, %rdx
	jne	.L918
	movl	%ebx, %r8d
	movq	-192(%rbp), %rsi
	movl	-200(%rbp), %edx
	movl	-224(%rbp), %ebx
.L916:
	movl	-184(%rbp), %edi
	testl	%edi, %edi
	je	.L919
	movslq	%r8d, %r9
	addq	-64(%rbp), %r9
	movzbl	(%rcx), %edi
	cmpb	%dil, (%r9)
	jne	.L919
	movq	%rsi, -64(%rbp)
	xorl	%edi, %edi
	movl	%r8d, %esi
	jmp	.L925
	.p2align 4,,10
	.p2align 3
.L924:
	movzbl	1(%r9,%rdi), %r8d
	addq	$1, %rdi
	cmpb	(%rcx,%rdi), %r8b
	jne	.L1133
.L925:
	addl	$1, %esi
	cmpq	%r14, %rdi
	jne	.L924
.L1133:
	movl	%esi, %r8d
	movq	-64(%rbp), %rsi
.L919:
	cmpl	$3, %r8d
	jle	.L914
	pxor	%xmm3, %xmm3
	movq	_ZZN6brotli39BackwardReferenceScoreUsingLastDistanceEdiiE25kDistanceShortCodeBitCost@GOTPCREL(%rip), %rcx
	cvtsi2sd	%r8d, %xmm3
	mulsd	.LC1(%rip), %xmm3
	subsd	(%rcx,%rax,2), %xmm3
	ucomisd	%xmm9, %xmm3
	jbe	.L914
	movapd	%xmm3, %xmm2
	movl	%edx, -168(%rbp)
	movl	%r8d, %ebx
	movl	%r8d, -172(%rbp)
	movapd	%xmm3, %xmm9
	movb	$1, -136(%rbp)
	jmp	.L914
.L1159:
	movl	-92(%rbp), %eax
	subl	$6, %eax
	bsrl	%eax, %ecx
	subl	$1, %ecx
	sarl	%cl, %eax
	leal	4(%rax,%rcx,2), %r8d
.L1142:
	movl	%r8d, %r11d
	andl	$7, %r11d
	cmpl	$15, %r8d
	setle	%al
	andl	%eax, %r10d
	jmp	.L989
.L1156:
	movl	-124(%rbp), %eax
	subl	$2, %eax
	bsrl	%eax, %ecx
	subl	$1, %ecx
	sarl	%cl, %eax
	leal	2(%rax,%rcx,2), %edx
	movl	%edx, %r9d
	andl	$7, %r9d
	sall	$3, %r9d
	cmpl	$7, %edx
	setle	%al
	andl	%eax, %r10d
	jmp	.L985
.L1011:
	xorl	%edi, %edi
.L901:
	xorq	%r9, %rsi
	xorl	%eax, %eax
	rep bsfq	%rsi, %rax
	sarl	$3, %eax
	addl	%eax, %edi
	jmp	.L903
.L1157:
	movl	-124(%rbp), %eax
	xorl	%r10d, %r10d
	leal	-66(%rax), %edx
	bsrl	%edx, %edx
	addl	$10, %edx
	movl	%edx, %r9d
	andl	$7, %r9d
	sall	$3, %r9d
	jmp	.L985
.L1151:
	addq	%r9, %rcx
	cmpq	$0, -104(%rbp)
	movq	%rcx, -64(%rbp)
	je	.L1166
	movq	%rcx, %r8
	movq	-88(%rbp), %rcx
	movq	(%r8), %r9
	movq	(%rcx), %rdi
	cmpq	%r9, %rdi
	jne	.L1007
	movq	-104(%rbp), %rdi
	movq	%rsi, -152(%rbp)
	leaq	8(%r8), %r8
	movl	%edx, -168(%rbp)
	movl	%r14d, -124(%rbp)
	movq	%rcx, %rsi
	movq	%rdi, %r9
	movq	%r9, %rdx
	jmp	.L871
	.p2align 4,,10
	.p2align 3
.L869:
	addq	$8, %r8
	movq	(%rcx), %rdi
	movq	-8(%r8), %r9
	cmpq	%r9, %rdi
	jne	.L1124
.L871:
	addq	$8, %rcx
	movl	%ecx, %r14d
	subl	%esi, %r14d
	subq	$1, %rdx
	jne	.L869
	movl	%r14d, %r8d
	movq	-152(%rbp), %rsi
	movl	-124(%rbp), %r14d
	movl	-168(%rbp), %edx
.L867:
	movl	-136(%rbp), %r9d
	testl	%r9d, %r9d
	je	.L870
	movslq	%r8d, %r9
	addq	-64(%rbp), %r9
	movzbl	(%rcx), %edi
	cmpb	%dil, (%r9)
	jne	.L870
	xorl	%edi, %edi
	movl	%r14d, -64(%rbp)
	jmp	.L876
	.p2align 4,,10
	.p2align 3
.L875:
	movzbl	1(%r9,%rdi), %r14d
	addq	$1, %rdi
	cmpb	(%rcx,%rdi), %r14b
	jne	.L1125
.L876:
	addl	$1, %r8d
	cmpq	%r13, %rdi
	jne	.L875
.L1125:
	movl	-64(%rbp), %r14d
.L870:
	cmpl	$3, %r8d
	jle	.L865
	pxor	%xmm2, %xmm2
	movq	_ZZN6brotli39BackwardReferenceScoreUsingLastDistanceEdiiE25kDistanceShortCodeBitCost@GOTPCREL(%rip), %rcx
	cvtsi2sd	%r8d, %xmm2
	mulsd	.LC1(%rip), %xmm2
	subsd	(%rcx,%rax,2), %xmm2
	ucomisd	%xmm3, %xmm2
	jbe	.L865
	movapd	%xmm2, %xmm1
	movl	%edx, -128(%rbp)
	movl	%r8d, %ebx
	movl	%r8d, -92(%rbp)
	movapd	%xmm2, %xmm3
	movb	$1, -120(%rbp)
	jmp	.L865
.L1021:
	movl	$1, %r10d
	xorl	%r12d, %r12d
	jmp	.L965
.L1160:
	movl	-92(%rbp), %eax
	leal	-70(%rax), %r8d
	bsrl	%r8d, %r8d
	addl	$12, %r8d
	jmp	.L1142
.L1132:
	movl	%ebx, %r8d
	movq	-192(%rbp), %rsi
	movl	-200(%rbp), %edx
	movl	-224(%rbp), %ebx
.L917:
	xorq	%rdi, %r9
	xorl	%ecx, %ecx
	movl	%r8d, %edi
	rep bsfq	%r9, %rcx
	sarl	$3, %ecx
	addl	%ecx, %edi
	movl	%edi, %r8d
	jmp	.L919
.L966:
	movl	8(%rbx), %r8d
	movl	$1, %eax
	movl	$2, %ecx
	jmp	.L1005
.L1022:
	movl	$2, %eax
	movl	$3, %ecx
	jmp	.L1005
.L1124:
	movl	%r14d, %r8d
	movq	-152(%rbp), %rsi
	movl	-124(%rbp), %r14d
	movl	-168(%rbp), %edx
.L868:
	xorq	%r9, %rdi
	movq	%rdi, %rcx
	rep bsfq	%rdi, %rcx
	movl	%r8d, %edi
	sarl	$3, %ecx
	addl	%ecx, %edi
	movl	%edi, %r8d
	jmp	.L870
.L1023:
	movl	$3, %eax
	movl	$4, %ecx
	jmp	.L1005
.L1150:
	movl	-216(%rbp), %ebx
	xorl	%edx, %edx
	movl	%ebx, -228(%rbp)
	jmp	.L864
.L1163:
	movl	$5, %eax
	movl	$6, %ecx
	jmp	.L1005
.L1162:
	movl	$4, %eax
	movl	$5, %ecx
	jmp	.L1005
.L1014:
	xorl	%r8d, %r8d
	jmp	.L917
.L1165:
	movq	-120(%rbp), %rcx
	xorl	%r8d, %r8d
	jmp	.L916
.L1025:
	movl	$6, %eax
	movl	$7, %ecx
	jmp	.L1005
.L1026:
	movl	$7, %eax
	movl	$8, %ecx
	jmp	.L1005
.L1027:
	movl	$8, %eax
	movl	$9, %ecx
	jmp	.L1005
.L1028:
	movl	$9, %eax
	movl	$10, %ecx
	jmp	.L1005
.L1029:
	movl	$10, %eax
	movl	$11, %ecx
	jmp	.L1005
	.p2align 4,,10
	.p2align 3
.L1007:
	xorl	%r8d, %r8d
	jmp	.L868
.L1166:
	movq	-88(%rbp), %rcx
	xorl	%r8d, %r8d
	jmp	.L867
.L1164:
	movl	$15, %eax
	movl	$16, %ecx
	jmp	.L1005
.L1030:
	movl	$11, %eax
	movl	$12, %ecx
	jmp	.L1005
.L1031:
	movl	$12, %eax
	movl	$13, %ecx
	jmp	.L1005
.L1032:
	movl	$13, %eax
	movl	$14, %ecx
	jmp	.L1005
.L1033:
	movl	$14, %eax
	movl	$15, %ecx
	jmp	.L1005
	.cfi_endproc
.LFE6254:
	.size	_ZN6brotli24CreateBackwardReferencesINS_16HashLongestMatchILi14ELi5ELi4ELi4ELb0ELb0EEELb0ELb0EEEvmmPKhmPKfmmdiPT_PiS9_PNS_7CommandES9_, .-_ZN6brotli24CreateBackwardReferencesINS_16HashLongestMatchILi14ELi5ELi4ELi4ELb0ELb0EEELb0ELb0EEEvmmPKhmPKfmmdiPT_PiS9_PNS_7CommandES9_
	.section	.text.unlikely._ZN6brotli24CreateBackwardReferencesINS_16HashLongestMatchILi14ELi5ELi4ELi4ELb0ELb0EEELb0ELb0EEEvmmPKhmPKfmmdiPT_PiS9_PNS_7CommandES9_,"axG",@progbits,_ZN6brotli24CreateBackwardReferencesINS_16HashLonge